
mmult.elf:     file format elf32-bigmips


Disassembly of section .text:

10000000 <_start>:
10000000:	0c000513 	jal	1000144c <main>
10000004:	3c1d1001 	lui	sp,0x1001

10000008 <ascii_dec_to_uint8>:
10000008:	27bdffe0 	addiu	sp,sp,-32
1000000c:	24020000 	li	v0,0
10000010:	afa40010 	sw	a0,16(sp)
10000014:	a3a20014 	sb	v0,20(sp)
10000018:	afa00018 	sw	zero,24(sp)
1000001c:	8fa20018 	lw	v0,24(sp)
10000020:	00000000 	nop
10000024:	2c420003 	sltiu	v0,v0,3
10000028:	14400004 	bnez	v0,1000003c <ascii_dec_to_uint8+0x34>
1000002c:	00000000 	nop
10000030:	24020000 	li	v0,0
10000034:	08000019 	j	10000064 <ascii_dec_to_uint8+0x5c>
10000038:	00000000 	nop
1000003c:	8fa20010 	lw	v0,16(sp)
10000040:	00000000 	nop
10000044:	8fa30018 	lw	v1,24(sp)
10000048:	00000000 	nop
1000004c:	00431021 	addu	v0,v0,v1
10000050:	80420000 	lb	v0,0(v0)
10000054:	00000000 	nop
10000058:	24030000 	li	v1,0
1000005c:	00431026 	xor	v0,v0,v1
10000060:	0002102b 	sltu	v0,zero,v0
10000064:	30420001 	andi	v0,v0,0x1
10000068:	1040002b 	beqz	v0,10000118 <ascii_dec_to_uint8+0x110>
1000006c:	00000000 	nop
10000070:	8fa20010 	lw	v0,16(sp)
10000074:	00000000 	nop
10000078:	8fa30018 	lw	v1,24(sp)
1000007c:	00000000 	nop
10000080:	00431021 	addu	v0,v0,v1
10000084:	80420000 	lb	v0,0(v0)
10000088:	00000000 	nop
1000008c:	28420030 	slti	v0,v0,48
10000090:	1440001b 	bnez	v0,10000100 <ascii_dec_to_uint8+0xf8>
10000094:	00000000 	nop
10000098:	8fa20010 	lw	v0,16(sp)
1000009c:	00000000 	nop
100000a0:	8fa30018 	lw	v1,24(sp)
100000a4:	00000000 	nop
100000a8:	00431021 	addu	v0,v0,v1
100000ac:	24030039 	li	v1,57
100000b0:	80420000 	lb	v0,0(v0)
100000b4:	00000000 	nop
100000b8:	0062102a 	slt	v0,v1,v0
100000bc:	14400010 	bnez	v0,10000100 <ascii_dec_to_uint8+0xf8>
100000c0:	00000000 	nop
100000c4:	93a20014 	lbu	v0,20(sp)
100000c8:	00000000 	nop
100000cc:	8fa30018 	lw	v1,24(sp)
100000d0:	00000000 	nop
100000d4:	8fa40010 	lw	a0,16(sp)
100000d8:	00000000 	nop
100000dc:	00831821 	addu	v1,a0,v1
100000e0:	000220c0 	sll	a0,v0,0x3
100000e4:	00021040 	sll	v0,v0,0x1
100000e8:	90630000 	lbu	v1,0(v1)
100000ec:	00000000 	nop
100000f0:	00821021 	addu	v0,a0,v0
100000f4:	00621021 	addu	v0,v1,v0
100000f8:	2442ffd0 	addiu	v0,v0,-48
100000fc:	a3a20014 	sb	v0,20(sp)
10000100:	8fa20018 	lw	v0,24(sp)
10000104:	00000000 	nop
10000108:	24420001 	addiu	v0,v0,1
1000010c:	afa20018 	sw	v0,24(sp)
10000110:	08000007 	j	1000001c <ascii_dec_to_uint8+0x14>
10000114:	00000000 	nop
10000118:	93a20014 	lbu	v0,20(sp)
1000011c:	00000000 	nop
10000120:	27bd0020 	addiu	sp,sp,32
10000124:	03e00008 	jr	ra
10000128:	00000000 	nop

1000012c <ascii_dec_to_uint16>:
1000012c:	27bdffe0 	addiu	sp,sp,-32
10000130:	24020000 	li	v0,0
10000134:	afa40010 	sw	a0,16(sp)
10000138:	a7a20014 	sh	v0,20(sp)
1000013c:	afa00018 	sw	zero,24(sp)
10000140:	8fa20018 	lw	v0,24(sp)
10000144:	00000000 	nop
10000148:	2c420005 	sltiu	v0,v0,5
1000014c:	14400004 	bnez	v0,10000160 <ascii_dec_to_uint16+0x34>
10000150:	00000000 	nop
10000154:	24020000 	li	v0,0
10000158:	08000062 	j	10000188 <ascii_dec_to_uint16+0x5c>
1000015c:	00000000 	nop
10000160:	8fa20010 	lw	v0,16(sp)
10000164:	00000000 	nop
10000168:	8fa30018 	lw	v1,24(sp)
1000016c:	00000000 	nop
10000170:	00431021 	addu	v0,v0,v1
10000174:	80420000 	lb	v0,0(v0)
10000178:	00000000 	nop
1000017c:	24030000 	li	v1,0
10000180:	00431026 	xor	v0,v0,v1
10000184:	0002102b 	sltu	v0,zero,v0
10000188:	30420001 	andi	v0,v0,0x1
1000018c:	1040002b 	beqz	v0,1000023c <ascii_dec_to_uint16+0x110>
10000190:	00000000 	nop
10000194:	8fa20010 	lw	v0,16(sp)
10000198:	00000000 	nop
1000019c:	8fa30018 	lw	v1,24(sp)
100001a0:	00000000 	nop
100001a4:	00431021 	addu	v0,v0,v1
100001a8:	80420000 	lb	v0,0(v0)
100001ac:	00000000 	nop
100001b0:	28420030 	slti	v0,v0,48
100001b4:	1440001b 	bnez	v0,10000224 <ascii_dec_to_uint16+0xf8>
100001b8:	00000000 	nop
100001bc:	8fa20010 	lw	v0,16(sp)
100001c0:	00000000 	nop
100001c4:	8fa30018 	lw	v1,24(sp)
100001c8:	00000000 	nop
100001cc:	00431021 	addu	v0,v0,v1
100001d0:	24030039 	li	v1,57
100001d4:	80420000 	lb	v0,0(v0)
100001d8:	00000000 	nop
100001dc:	0062102a 	slt	v0,v1,v0
100001e0:	14400010 	bnez	v0,10000224 <ascii_dec_to_uint16+0xf8>
100001e4:	00000000 	nop
100001e8:	97a20014 	lhu	v0,20(sp)
100001ec:	00000000 	nop
100001f0:	8fa30018 	lw	v1,24(sp)
100001f4:	00000000 	nop
100001f8:	8fa40010 	lw	a0,16(sp)
100001fc:	00000000 	nop
10000200:	00831821 	addu	v1,a0,v1
10000204:	000220c0 	sll	a0,v0,0x3
10000208:	00021040 	sll	v0,v0,0x1
1000020c:	80630000 	lb	v1,0(v1)
10000210:	00000000 	nop
10000214:	00821021 	addu	v0,a0,v0
10000218:	00621021 	addu	v0,v1,v0
1000021c:	2442ffd0 	addiu	v0,v0,-48
10000220:	a7a20014 	sh	v0,20(sp)
10000224:	8fa20018 	lw	v0,24(sp)
10000228:	00000000 	nop
1000022c:	24420001 	addiu	v0,v0,1
10000230:	afa20018 	sw	v0,24(sp)
10000234:	08000050 	j	10000140 <ascii_dec_to_uint16+0x14>
10000238:	00000000 	nop
1000023c:	97a20014 	lhu	v0,20(sp)
10000240:	00000000 	nop
10000244:	27bd0020 	addiu	sp,sp,32
10000248:	03e00008 	jr	ra
1000024c:	00000000 	nop

10000250 <ascii_dec_to_uint32>:
10000250:	27bdffe0 	addiu	sp,sp,-32
10000254:	afa40010 	sw	a0,16(sp)
10000258:	afa00014 	sw	zero,20(sp)
1000025c:	afa00018 	sw	zero,24(sp)
10000260:	8fa20018 	lw	v0,24(sp)
10000264:	00000000 	nop
10000268:	2c420009 	sltiu	v0,v0,9
1000026c:	14400004 	bnez	v0,10000280 <ascii_dec_to_uint32+0x30>
10000270:	00000000 	nop
10000274:	24020000 	li	v0,0
10000278:	080000aa 	j	100002a8 <ascii_dec_to_uint32+0x58>
1000027c:	00000000 	nop
10000280:	8fa20010 	lw	v0,16(sp)
10000284:	00000000 	nop
10000288:	8fa30018 	lw	v1,24(sp)
1000028c:	00000000 	nop
10000290:	00431021 	addu	v0,v0,v1
10000294:	80420000 	lb	v0,0(v0)
10000298:	00000000 	nop
1000029c:	24030000 	li	v1,0
100002a0:	00431026 	xor	v0,v0,v1
100002a4:	0002102b 	sltu	v0,zero,v0
100002a8:	30420001 	andi	v0,v0,0x1
100002ac:	1040002b 	beqz	v0,1000035c <ascii_dec_to_uint32+0x10c>
100002b0:	00000000 	nop
100002b4:	8fa20010 	lw	v0,16(sp)
100002b8:	00000000 	nop
100002bc:	8fa30018 	lw	v1,24(sp)
100002c0:	00000000 	nop
100002c4:	00431021 	addu	v0,v0,v1
100002c8:	80420000 	lb	v0,0(v0)
100002cc:	00000000 	nop
100002d0:	28420030 	slti	v0,v0,48
100002d4:	1440001b 	bnez	v0,10000344 <ascii_dec_to_uint32+0xf4>
100002d8:	00000000 	nop
100002dc:	8fa20010 	lw	v0,16(sp)
100002e0:	00000000 	nop
100002e4:	8fa30018 	lw	v1,24(sp)
100002e8:	00000000 	nop
100002ec:	00431021 	addu	v0,v0,v1
100002f0:	24030039 	li	v1,57
100002f4:	80420000 	lb	v0,0(v0)
100002f8:	00000000 	nop
100002fc:	0062102a 	slt	v0,v1,v0
10000300:	14400010 	bnez	v0,10000344 <ascii_dec_to_uint32+0xf4>
10000304:	00000000 	nop
10000308:	8fa20014 	lw	v0,20(sp)
1000030c:	00000000 	nop
10000310:	8fa30018 	lw	v1,24(sp)
10000314:	00000000 	nop
10000318:	8fa40010 	lw	a0,16(sp)
1000031c:	00000000 	nop
10000320:	00831821 	addu	v1,a0,v1
10000324:	000220c0 	sll	a0,v0,0x3
10000328:	00021040 	sll	v0,v0,0x1
1000032c:	80630000 	lb	v1,0(v1)
10000330:	00000000 	nop
10000334:	00821021 	addu	v0,a0,v0
10000338:	00621021 	addu	v0,v1,v0
1000033c:	2442ffd0 	addiu	v0,v0,-48
10000340:	afa20014 	sw	v0,20(sp)
10000344:	8fa20018 	lw	v0,24(sp)
10000348:	00000000 	nop
1000034c:	24420001 	addiu	v0,v0,1
10000350:	afa20018 	sw	v0,24(sp)
10000354:	08000098 	j	10000260 <ascii_dec_to_uint32+0x10>
10000358:	00000000 	nop
1000035c:	8fa20014 	lw	v0,20(sp)
10000360:	00000000 	nop
10000364:	27bd0020 	addiu	sp,sp,32
10000368:	03e00008 	jr	ra
1000036c:	00000000 	nop

10000370 <ascii_hex_to_uint8>:
10000370:	27bdffe0 	addiu	sp,sp,-32
10000374:	24020000 	li	v0,0
10000378:	afa40010 	sw	a0,16(sp)
1000037c:	a3a20014 	sb	v0,20(sp)
10000380:	a3a20018 	sb	v0,24(sp)
10000384:	93a20018 	lbu	v0,24(sp)
10000388:	00000000 	nop
1000038c:	2c420002 	sltiu	v0,v0,2
10000390:	14400004 	bnez	v0,100003a4 <ascii_hex_to_uint8+0x34>
10000394:	00000000 	nop
10000398:	24020000 	li	v0,0
1000039c:	080000f3 	j	100003cc <ascii_hex_to_uint8+0x5c>
100003a0:	00000000 	nop
100003a4:	8fa20010 	lw	v0,16(sp)
100003a8:	00000000 	nop
100003ac:	93a30018 	lbu	v1,24(sp)
100003b0:	00000000 	nop
100003b4:	00431021 	addu	v0,v0,v1
100003b8:	80420000 	lb	v0,0(v0)
100003bc:	00000000 	nop
100003c0:	24030000 	li	v1,0
100003c4:	00431026 	xor	v0,v0,v1
100003c8:	0002102b 	sltu	v0,zero,v0
100003cc:	30420001 	andi	v0,v0,0x1
100003d0:	1040006c 	beqz	v0,10000584 <ascii_hex_to_uint8+0x214>
100003d4:	00000000 	nop
100003d8:	8fa20010 	lw	v0,16(sp)
100003dc:	00000000 	nop
100003e0:	93a30018 	lbu	v1,24(sp)
100003e4:	00000000 	nop
100003e8:	00431021 	addu	v0,v0,v1
100003ec:	80420000 	lb	v0,0(v0)
100003f0:	00000000 	nop
100003f4:	28420030 	slti	v0,v0,48
100003f8:	14400019 	bnez	v0,10000460 <ascii_hex_to_uint8+0xf0>
100003fc:	00000000 	nop
10000400:	8fa20010 	lw	v0,16(sp)
10000404:	00000000 	nop
10000408:	93a30018 	lbu	v1,24(sp)
1000040c:	00000000 	nop
10000410:	00431021 	addu	v0,v0,v1
10000414:	24030039 	li	v1,57
10000418:	80420000 	lb	v0,0(v0)
1000041c:	00000000 	nop
10000420:	0062102a 	slt	v0,v1,v0
10000424:	1440000e 	bnez	v0,10000460 <ascii_hex_to_uint8+0xf0>
10000428:	00000000 	nop
1000042c:	93a20018 	lbu	v0,24(sp)
10000430:	00000000 	nop
10000434:	8fa30010 	lw	v1,16(sp)
10000438:	00000000 	nop
1000043c:	93a40014 	lbu	a0,20(sp)
10000440:	00000000 	nop
10000444:	00621021 	addu	v0,v1,v0
10000448:	90420000 	lbu	v0,0(v0)
1000044c:	00000000 	nop
10000450:	00041900 	sll	v1,a0,0x4
10000454:	00431021 	addu	v0,v0,v1
10000458:	2442ffd0 	addiu	v0,v0,-48
1000045c:	a3a20014 	sb	v0,20(sp)
10000460:	8fa20010 	lw	v0,16(sp)
10000464:	00000000 	nop
10000468:	93a30018 	lbu	v1,24(sp)
1000046c:	00000000 	nop
10000470:	00431021 	addu	v0,v0,v1
10000474:	80420000 	lb	v0,0(v0)
10000478:	00000000 	nop
1000047c:	28420061 	slti	v0,v0,97
10000480:	14400019 	bnez	v0,100004e8 <ascii_hex_to_uint8+0x178>
10000484:	00000000 	nop
10000488:	8fa20010 	lw	v0,16(sp)
1000048c:	00000000 	nop
10000490:	93a30018 	lbu	v1,24(sp)
10000494:	00000000 	nop
10000498:	00431021 	addu	v0,v0,v1
1000049c:	24030066 	li	v1,102
100004a0:	80420000 	lb	v0,0(v0)
100004a4:	00000000 	nop
100004a8:	0062102a 	slt	v0,v1,v0
100004ac:	1440000e 	bnez	v0,100004e8 <ascii_hex_to_uint8+0x178>
100004b0:	00000000 	nop
100004b4:	93a20018 	lbu	v0,24(sp)
100004b8:	00000000 	nop
100004bc:	8fa30010 	lw	v1,16(sp)
100004c0:	00000000 	nop
100004c4:	93a40014 	lbu	a0,20(sp)
100004c8:	00000000 	nop
100004cc:	00621021 	addu	v0,v1,v0
100004d0:	90420000 	lbu	v0,0(v0)
100004d4:	00000000 	nop
100004d8:	00041900 	sll	v1,a0,0x4
100004dc:	00431021 	addu	v0,v0,v1
100004e0:	2442ffa9 	addiu	v0,v0,-87
100004e4:	a3a20014 	sb	v0,20(sp)
100004e8:	8fa20010 	lw	v0,16(sp)
100004ec:	00000000 	nop
100004f0:	93a30018 	lbu	v1,24(sp)
100004f4:	00000000 	nop
100004f8:	00431021 	addu	v0,v0,v1
100004fc:	80420000 	lb	v0,0(v0)
10000500:	00000000 	nop
10000504:	28420041 	slti	v0,v0,65
10000508:	14400019 	bnez	v0,10000570 <ascii_hex_to_uint8+0x200>
1000050c:	00000000 	nop
10000510:	8fa20010 	lw	v0,16(sp)
10000514:	00000000 	nop
10000518:	93a30018 	lbu	v1,24(sp)
1000051c:	00000000 	nop
10000520:	00431021 	addu	v0,v0,v1
10000524:	24030046 	li	v1,70
10000528:	80420000 	lb	v0,0(v0)
1000052c:	00000000 	nop
10000530:	0062102a 	slt	v0,v1,v0
10000534:	1440000e 	bnez	v0,10000570 <ascii_hex_to_uint8+0x200>
10000538:	00000000 	nop
1000053c:	93a20018 	lbu	v0,24(sp)
10000540:	00000000 	nop
10000544:	8fa30010 	lw	v1,16(sp)
10000548:	00000000 	nop
1000054c:	93a40014 	lbu	a0,20(sp)
10000550:	00000000 	nop
10000554:	00621021 	addu	v0,v1,v0
10000558:	90420000 	lbu	v0,0(v0)
1000055c:	00000000 	nop
10000560:	00041900 	sll	v1,a0,0x4
10000564:	00431021 	addu	v0,v0,v1
10000568:	2442ffc9 	addiu	v0,v0,-55
1000056c:	a3a20014 	sb	v0,20(sp)
10000570:	93a20018 	lbu	v0,24(sp)
10000574:	00000000 	nop
10000578:	24420001 	addiu	v0,v0,1
1000057c:	080000e0 	j	10000380 <ascii_hex_to_uint8+0x10>
10000580:	00000000 	nop
10000584:	93a20014 	lbu	v0,20(sp)
10000588:	00000000 	nop
1000058c:	27bd0020 	addiu	sp,sp,32
10000590:	03e00008 	jr	ra
10000594:	00000000 	nop

10000598 <ascii_hex_to_uint16>:
10000598:	27bdffe0 	addiu	sp,sp,-32
1000059c:	24020000 	li	v0,0
100005a0:	afa40010 	sw	a0,16(sp)
100005a4:	a7a20014 	sh	v0,20(sp)
100005a8:	a7a20018 	sh	v0,24(sp)
100005ac:	97a20018 	lhu	v0,24(sp)
100005b0:	00000000 	nop
100005b4:	2c420004 	sltiu	v0,v0,4
100005b8:	14400004 	bnez	v0,100005cc <ascii_hex_to_uint16+0x34>
100005bc:	00000000 	nop
100005c0:	24020000 	li	v0,0
100005c4:	0800017d 	j	100005f4 <ascii_hex_to_uint16+0x5c>
100005c8:	00000000 	nop
100005cc:	8fa20010 	lw	v0,16(sp)
100005d0:	00000000 	nop
100005d4:	97a30018 	lhu	v1,24(sp)
100005d8:	00000000 	nop
100005dc:	00431021 	addu	v0,v0,v1
100005e0:	80420000 	lb	v0,0(v0)
100005e4:	00000000 	nop
100005e8:	24030000 	li	v1,0
100005ec:	00431026 	xor	v0,v0,v1
100005f0:	0002102b 	sltu	v0,zero,v0
100005f4:	30420001 	andi	v0,v0,0x1
100005f8:	1040006c 	beqz	v0,100007ac <ascii_hex_to_uint16+0x214>
100005fc:	00000000 	nop
10000600:	8fa20010 	lw	v0,16(sp)
10000604:	00000000 	nop
10000608:	97a30018 	lhu	v1,24(sp)
1000060c:	00000000 	nop
10000610:	00431021 	addu	v0,v0,v1
10000614:	80420000 	lb	v0,0(v0)
10000618:	00000000 	nop
1000061c:	28420030 	slti	v0,v0,48
10000620:	14400019 	bnez	v0,10000688 <ascii_hex_to_uint16+0xf0>
10000624:	00000000 	nop
10000628:	8fa20010 	lw	v0,16(sp)
1000062c:	00000000 	nop
10000630:	97a30018 	lhu	v1,24(sp)
10000634:	00000000 	nop
10000638:	00431021 	addu	v0,v0,v1
1000063c:	24030039 	li	v1,57
10000640:	80420000 	lb	v0,0(v0)
10000644:	00000000 	nop
10000648:	0062102a 	slt	v0,v1,v0
1000064c:	1440000e 	bnez	v0,10000688 <ascii_hex_to_uint16+0xf0>
10000650:	00000000 	nop
10000654:	97a20018 	lhu	v0,24(sp)
10000658:	00000000 	nop
1000065c:	8fa30010 	lw	v1,16(sp)
10000660:	00000000 	nop
10000664:	97a40014 	lhu	a0,20(sp)
10000668:	00000000 	nop
1000066c:	00621021 	addu	v0,v1,v0
10000670:	80420000 	lb	v0,0(v0)
10000674:	00000000 	nop
10000678:	00041900 	sll	v1,a0,0x4
1000067c:	00431021 	addu	v0,v0,v1
10000680:	2442ffd0 	addiu	v0,v0,-48
10000684:	a7a20014 	sh	v0,20(sp)
10000688:	8fa20010 	lw	v0,16(sp)
1000068c:	00000000 	nop
10000690:	97a30018 	lhu	v1,24(sp)
10000694:	00000000 	nop
10000698:	00431021 	addu	v0,v0,v1
1000069c:	80420000 	lb	v0,0(v0)
100006a0:	00000000 	nop
100006a4:	28420061 	slti	v0,v0,97
100006a8:	14400019 	bnez	v0,10000710 <ascii_hex_to_uint16+0x178>
100006ac:	00000000 	nop
100006b0:	8fa20010 	lw	v0,16(sp)
100006b4:	00000000 	nop
100006b8:	97a30018 	lhu	v1,24(sp)
100006bc:	00000000 	nop
100006c0:	00431021 	addu	v0,v0,v1
100006c4:	24030066 	li	v1,102
100006c8:	80420000 	lb	v0,0(v0)
100006cc:	00000000 	nop
100006d0:	0062102a 	slt	v0,v1,v0
100006d4:	1440000e 	bnez	v0,10000710 <ascii_hex_to_uint16+0x178>
100006d8:	00000000 	nop
100006dc:	97a20018 	lhu	v0,24(sp)
100006e0:	00000000 	nop
100006e4:	8fa30010 	lw	v1,16(sp)
100006e8:	00000000 	nop
100006ec:	97a40014 	lhu	a0,20(sp)
100006f0:	00000000 	nop
100006f4:	00621021 	addu	v0,v1,v0
100006f8:	80420000 	lb	v0,0(v0)
100006fc:	00000000 	nop
10000700:	00041900 	sll	v1,a0,0x4
10000704:	00431021 	addu	v0,v0,v1
10000708:	2442ffa9 	addiu	v0,v0,-87
1000070c:	a7a20014 	sh	v0,20(sp)
10000710:	8fa20010 	lw	v0,16(sp)
10000714:	00000000 	nop
10000718:	97a30018 	lhu	v1,24(sp)
1000071c:	00000000 	nop
10000720:	00431021 	addu	v0,v0,v1
10000724:	80420000 	lb	v0,0(v0)
10000728:	00000000 	nop
1000072c:	28420041 	slti	v0,v0,65
10000730:	14400019 	bnez	v0,10000798 <ascii_hex_to_uint16+0x200>
10000734:	00000000 	nop
10000738:	8fa20010 	lw	v0,16(sp)
1000073c:	00000000 	nop
10000740:	97a30018 	lhu	v1,24(sp)
10000744:	00000000 	nop
10000748:	00431021 	addu	v0,v0,v1
1000074c:	24030046 	li	v1,70
10000750:	80420000 	lb	v0,0(v0)
10000754:	00000000 	nop
10000758:	0062102a 	slt	v0,v1,v0
1000075c:	1440000e 	bnez	v0,10000798 <ascii_hex_to_uint16+0x200>
10000760:	00000000 	nop
10000764:	97a20018 	lhu	v0,24(sp)
10000768:	00000000 	nop
1000076c:	8fa30010 	lw	v1,16(sp)
10000770:	00000000 	nop
10000774:	97a40014 	lhu	a0,20(sp)
10000778:	00000000 	nop
1000077c:	00621021 	addu	v0,v1,v0
10000780:	80420000 	lb	v0,0(v0)
10000784:	00000000 	nop
10000788:	00041900 	sll	v1,a0,0x4
1000078c:	00431021 	addu	v0,v0,v1
10000790:	2442ffc9 	addiu	v0,v0,-55
10000794:	a7a20014 	sh	v0,20(sp)
10000798:	97a20018 	lhu	v0,24(sp)
1000079c:	00000000 	nop
100007a0:	24420001 	addiu	v0,v0,1
100007a4:	0800016a 	j	100005a8 <ascii_hex_to_uint16+0x10>
100007a8:	00000000 	nop
100007ac:	97a20014 	lhu	v0,20(sp)
100007b0:	00000000 	nop
100007b4:	27bd0020 	addiu	sp,sp,32
100007b8:	03e00008 	jr	ra
100007bc:	00000000 	nop

100007c0 <ascii_hex_to_uint32>:
100007c0:	27bdffe0 	addiu	sp,sp,-32
100007c4:	afa40010 	sw	a0,16(sp)
100007c8:	afa00014 	sw	zero,20(sp)
100007cc:	afa00018 	sw	zero,24(sp)
100007d0:	8fa20018 	lw	v0,24(sp)
100007d4:	00000000 	nop
100007d8:	2c420008 	sltiu	v0,v0,8
100007dc:	14400004 	bnez	v0,100007f0 <ascii_hex_to_uint32+0x30>
100007e0:	00000000 	nop
100007e4:	24020000 	li	v0,0
100007e8:	08000206 	j	10000818 <ascii_hex_to_uint32+0x58>
100007ec:	00000000 	nop
100007f0:	8fa20010 	lw	v0,16(sp)
100007f4:	00000000 	nop
100007f8:	8fa30018 	lw	v1,24(sp)
100007fc:	00000000 	nop
10000800:	00431021 	addu	v0,v0,v1
10000804:	80420000 	lb	v0,0(v0)
10000808:	00000000 	nop
1000080c:	24030000 	li	v1,0
10000810:	00431026 	xor	v0,v0,v1
10000814:	0002102b 	sltu	v0,zero,v0
10000818:	30420001 	andi	v0,v0,0x1
1000081c:	1040006d 	beqz	v0,100009d4 <ascii_hex_to_uint32+0x214>
10000820:	00000000 	nop
10000824:	8fa20010 	lw	v0,16(sp)
10000828:	00000000 	nop
1000082c:	8fa30018 	lw	v1,24(sp)
10000830:	00000000 	nop
10000834:	00431021 	addu	v0,v0,v1
10000838:	80420000 	lb	v0,0(v0)
1000083c:	00000000 	nop
10000840:	28420030 	slti	v0,v0,48
10000844:	14400019 	bnez	v0,100008ac <ascii_hex_to_uint32+0xec>
10000848:	00000000 	nop
1000084c:	8fa20010 	lw	v0,16(sp)
10000850:	00000000 	nop
10000854:	8fa30018 	lw	v1,24(sp)
10000858:	00000000 	nop
1000085c:	00431021 	addu	v0,v0,v1
10000860:	24030039 	li	v1,57
10000864:	80420000 	lb	v0,0(v0)
10000868:	00000000 	nop
1000086c:	0062102a 	slt	v0,v1,v0
10000870:	1440000e 	bnez	v0,100008ac <ascii_hex_to_uint32+0xec>
10000874:	00000000 	nop
10000878:	8fa20018 	lw	v0,24(sp)
1000087c:	00000000 	nop
10000880:	8fa30010 	lw	v1,16(sp)
10000884:	00000000 	nop
10000888:	8fa40014 	lw	a0,20(sp)
1000088c:	00000000 	nop
10000890:	00621021 	addu	v0,v1,v0
10000894:	80420000 	lb	v0,0(v0)
10000898:	00000000 	nop
1000089c:	00041900 	sll	v1,a0,0x4
100008a0:	00431021 	addu	v0,v0,v1
100008a4:	2442ffd0 	addiu	v0,v0,-48
100008a8:	afa20014 	sw	v0,20(sp)
100008ac:	8fa20010 	lw	v0,16(sp)
100008b0:	00000000 	nop
100008b4:	8fa30018 	lw	v1,24(sp)
100008b8:	00000000 	nop
100008bc:	00431021 	addu	v0,v0,v1
100008c0:	80420000 	lb	v0,0(v0)
100008c4:	00000000 	nop
100008c8:	28420061 	slti	v0,v0,97
100008cc:	14400019 	bnez	v0,10000934 <ascii_hex_to_uint32+0x174>
100008d0:	00000000 	nop
100008d4:	8fa20010 	lw	v0,16(sp)
100008d8:	00000000 	nop
100008dc:	8fa30018 	lw	v1,24(sp)
100008e0:	00000000 	nop
100008e4:	00431021 	addu	v0,v0,v1
100008e8:	24030066 	li	v1,102
100008ec:	80420000 	lb	v0,0(v0)
100008f0:	00000000 	nop
100008f4:	0062102a 	slt	v0,v1,v0
100008f8:	1440000e 	bnez	v0,10000934 <ascii_hex_to_uint32+0x174>
100008fc:	00000000 	nop
10000900:	8fa20018 	lw	v0,24(sp)
10000904:	00000000 	nop
10000908:	8fa30010 	lw	v1,16(sp)
1000090c:	00000000 	nop
10000910:	8fa40014 	lw	a0,20(sp)
10000914:	00000000 	nop
10000918:	00621021 	addu	v0,v1,v0
1000091c:	80420000 	lb	v0,0(v0)
10000920:	00000000 	nop
10000924:	00041900 	sll	v1,a0,0x4
10000928:	00431021 	addu	v0,v0,v1
1000092c:	2442ffa9 	addiu	v0,v0,-87
10000930:	afa20014 	sw	v0,20(sp)
10000934:	8fa20010 	lw	v0,16(sp)
10000938:	00000000 	nop
1000093c:	8fa30018 	lw	v1,24(sp)
10000940:	00000000 	nop
10000944:	00431021 	addu	v0,v0,v1
10000948:	80420000 	lb	v0,0(v0)
1000094c:	00000000 	nop
10000950:	28420041 	slti	v0,v0,65
10000954:	14400019 	bnez	v0,100009bc <ascii_hex_to_uint32+0x1fc>
10000958:	00000000 	nop
1000095c:	8fa20010 	lw	v0,16(sp)
10000960:	00000000 	nop
10000964:	8fa30018 	lw	v1,24(sp)
10000968:	00000000 	nop
1000096c:	00431021 	addu	v0,v0,v1
10000970:	24030046 	li	v1,70
10000974:	80420000 	lb	v0,0(v0)
10000978:	00000000 	nop
1000097c:	0062102a 	slt	v0,v1,v0
10000980:	1440000e 	bnez	v0,100009bc <ascii_hex_to_uint32+0x1fc>
10000984:	00000000 	nop
10000988:	8fa20018 	lw	v0,24(sp)
1000098c:	00000000 	nop
10000990:	8fa30010 	lw	v1,16(sp)
10000994:	00000000 	nop
10000998:	8fa40014 	lw	a0,20(sp)
1000099c:	00000000 	nop
100009a0:	00621021 	addu	v0,v1,v0
100009a4:	80420000 	lb	v0,0(v0)
100009a8:	00000000 	nop
100009ac:	00041900 	sll	v1,a0,0x4
100009b0:	00431021 	addu	v0,v0,v1
100009b4:	2442ffc9 	addiu	v0,v0,-55
100009b8:	afa20014 	sw	v0,20(sp)
100009bc:	8fa20018 	lw	v0,24(sp)
100009c0:	00000000 	nop
100009c4:	24420001 	addiu	v0,v0,1
100009c8:	afa20018 	sw	v0,24(sp)
100009cc:	080001f4 	j	100007d0 <ascii_hex_to_uint32+0x10>
100009d0:	00000000 	nop
100009d4:	8fa20014 	lw	v0,20(sp)
100009d8:	00000000 	nop
100009dc:	27bd0020 	addiu	sp,sp,32
100009e0:	03e00008 	jr	ra
100009e4:	00000000 	nop

100009e8 <uint8_to_ascii_hex>:
100009e8:	27bdffd8 	addiu	sp,sp,-40
100009ec:	a3a40010 	sb	a0,16(sp)
100009f0:	afa50014 	sw	a1,20(sp)
100009f4:	afa60018 	sw	a2,24(sp)
100009f8:	24020002 	li	v0,2
100009fc:	afa0001c 	sw	zero,28(sp)
10000a00:	afa20020 	sw	v0,32(sp)
10000a04:	8fa2001c 	lw	v0,28(sp)
10000a08:	00000000 	nop
10000a0c:	8fa30020 	lw	v1,32(sp)
10000a10:	00000000 	nop
10000a14:	0043102b 	sltu	v0,v0,v1
10000a18:	14400004 	bnez	v0,10000a2c <uint8_to_ascii_hex+0x44>
10000a1c:	00000000 	nop
10000a20:	24020000 	li	v0,0
10000a24:	08000291 	j	10000a44 <uint8_to_ascii_hex+0x5c>
10000a28:	00000000 	nop
10000a2c:	8fa2001c 	lw	v0,28(sp)
10000a30:	00000000 	nop
10000a34:	24420001 	addiu	v0,v0,1
10000a38:	8fa30018 	lw	v1,24(sp)
10000a3c:	00000000 	nop
10000a40:	0043102b 	sltu	v0,v0,v1
10000a44:	30420001 	andi	v0,v0,0x1
10000a48:	1040003a 	beqz	v0,10000b34 <uint8_to_ascii_hex+0x14c>
10000a4c:	00000000 	nop
10000a50:	8fa20020 	lw	v0,32(sp)
10000a54:	00000000 	nop
10000a58:	2442ffff 	addiu	v0,v0,-1
10000a5c:	8fa3001c 	lw	v1,28(sp)
10000a60:	00000000 	nop
10000a64:	00431023 	subu	v0,v0,v1
10000a68:	93a30010 	lbu	v1,16(sp)
10000a6c:	00000000 	nop
10000a70:	00021080 	sll	v0,v0,0x2
10000a74:	00431006 	srlv	v0,v1,v0
10000a78:	3042000f 	andi	v0,v0,0xf
10000a7c:	a3a20024 	sb	v0,36(sp)
10000a80:	83a20024 	lb	v0,36(sp)
10000a84:	00000000 	nop
10000a88:	04400010 	bltz	v0,10000acc <uint8_to_ascii_hex+0xe4>
10000a8c:	00000000 	nop
10000a90:	24020009 	li	v0,9
10000a94:	83a30024 	lb	v1,36(sp)
10000a98:	00000000 	nop
10000a9c:	0043102a 	slt	v0,v0,v1
10000aa0:	1440000a 	bnez	v0,10000acc <uint8_to_ascii_hex+0xe4>
10000aa4:	00000000 	nop
10000aa8:	93a20024 	lbu	v0,36(sp)
10000aac:	00000000 	nop
10000ab0:	8fa3001c 	lw	v1,28(sp)
10000ab4:	00000000 	nop
10000ab8:	8fa40014 	lw	a0,20(sp)
10000abc:	00000000 	nop
10000ac0:	24420030 	addiu	v0,v0,48
10000ac4:	00831821 	addu	v1,a0,v1
10000ac8:	a0620000 	sb	v0,0(v1)
10000acc:	83a20024 	lb	v0,36(sp)
10000ad0:	00000000 	nop
10000ad4:	2842000a 	slti	v0,v0,10
10000ad8:	14400010 	bnez	v0,10000b1c <uint8_to_ascii_hex+0x134>
10000adc:	00000000 	nop
10000ae0:	2402000f 	li	v0,15
10000ae4:	83a30024 	lb	v1,36(sp)
10000ae8:	00000000 	nop
10000aec:	0043102a 	slt	v0,v0,v1
10000af0:	1440000a 	bnez	v0,10000b1c <uint8_to_ascii_hex+0x134>
10000af4:	00000000 	nop
10000af8:	93a20024 	lbu	v0,36(sp)
10000afc:	00000000 	nop
10000b00:	8fa3001c 	lw	v1,28(sp)
10000b04:	00000000 	nop
10000b08:	8fa40014 	lw	a0,20(sp)
10000b0c:	00000000 	nop
10000b10:	24420057 	addiu	v0,v0,87
10000b14:	00831821 	addu	v1,a0,v1
10000b18:	a0620000 	sb	v0,0(v1)
10000b1c:	8fa2001c 	lw	v0,28(sp)
10000b20:	00000000 	nop
10000b24:	24420001 	addiu	v0,v0,1
10000b28:	afa2001c 	sw	v0,28(sp)
10000b2c:	08000281 	j	10000a04 <uint8_to_ascii_hex+0x1c>
10000b30:	00000000 	nop
10000b34:	8fa2001c 	lw	v0,28(sp)
10000b38:	00000000 	nop
10000b3c:	8fa30014 	lw	v1,20(sp)
10000b40:	00000000 	nop
10000b44:	24040000 	li	a0,0
10000b48:	00621021 	addu	v0,v1,v0
10000b4c:	a0440000 	sb	a0,0(v0)
10000b50:	8fa20014 	lw	v0,20(sp)
10000b54:	00000000 	nop
10000b58:	27bd0028 	addiu	sp,sp,40
10000b5c:	03e00008 	jr	ra
10000b60:	00000000 	nop

10000b64 <uint16_to_ascii_hex>:
10000b64:	27bdffd8 	addiu	sp,sp,-40
10000b68:	a7a40010 	sh	a0,16(sp)
10000b6c:	afa50014 	sw	a1,20(sp)
10000b70:	afa60018 	sw	a2,24(sp)
10000b74:	24020004 	li	v0,4
10000b78:	afa0001c 	sw	zero,28(sp)
10000b7c:	afa20020 	sw	v0,32(sp)
10000b80:	8fa2001c 	lw	v0,28(sp)
10000b84:	00000000 	nop
10000b88:	8fa30020 	lw	v1,32(sp)
10000b8c:	00000000 	nop
10000b90:	0043102b 	sltu	v0,v0,v1
10000b94:	14400004 	bnez	v0,10000ba8 <uint16_to_ascii_hex+0x44>
10000b98:	00000000 	nop
10000b9c:	24020000 	li	v0,0
10000ba0:	080002f0 	j	10000bc0 <uint16_to_ascii_hex+0x5c>
10000ba4:	00000000 	nop
10000ba8:	8fa2001c 	lw	v0,28(sp)
10000bac:	00000000 	nop
10000bb0:	24420001 	addiu	v0,v0,1
10000bb4:	8fa30018 	lw	v1,24(sp)
10000bb8:	00000000 	nop
10000bbc:	0043102b 	sltu	v0,v0,v1
10000bc0:	30420001 	andi	v0,v0,0x1
10000bc4:	1040003a 	beqz	v0,10000cb0 <uint16_to_ascii_hex+0x14c>
10000bc8:	00000000 	nop
10000bcc:	8fa20020 	lw	v0,32(sp)
10000bd0:	00000000 	nop
10000bd4:	2442ffff 	addiu	v0,v0,-1
10000bd8:	8fa3001c 	lw	v1,28(sp)
10000bdc:	00000000 	nop
10000be0:	00431023 	subu	v0,v0,v1
10000be4:	97a30010 	lhu	v1,16(sp)
10000be8:	00000000 	nop
10000bec:	00021080 	sll	v0,v0,0x2
10000bf0:	00431006 	srlv	v0,v1,v0
10000bf4:	3042000f 	andi	v0,v0,0xf
10000bf8:	a3a20024 	sb	v0,36(sp)
10000bfc:	83a20024 	lb	v0,36(sp)
10000c00:	00000000 	nop
10000c04:	04400010 	bltz	v0,10000c48 <uint16_to_ascii_hex+0xe4>
10000c08:	00000000 	nop
10000c0c:	24020009 	li	v0,9
10000c10:	83a30024 	lb	v1,36(sp)
10000c14:	00000000 	nop
10000c18:	0043102a 	slt	v0,v0,v1
10000c1c:	1440000a 	bnez	v0,10000c48 <uint16_to_ascii_hex+0xe4>
10000c20:	00000000 	nop
10000c24:	93a20024 	lbu	v0,36(sp)
10000c28:	00000000 	nop
10000c2c:	8fa3001c 	lw	v1,28(sp)
10000c30:	00000000 	nop
10000c34:	8fa40014 	lw	a0,20(sp)
10000c38:	00000000 	nop
10000c3c:	24420030 	addiu	v0,v0,48
10000c40:	00831821 	addu	v1,a0,v1
10000c44:	a0620000 	sb	v0,0(v1)
10000c48:	83a20024 	lb	v0,36(sp)
10000c4c:	00000000 	nop
10000c50:	2842000a 	slti	v0,v0,10
10000c54:	14400010 	bnez	v0,10000c98 <uint16_to_ascii_hex+0x134>
10000c58:	00000000 	nop
10000c5c:	2402000f 	li	v0,15
10000c60:	83a30024 	lb	v1,36(sp)
10000c64:	00000000 	nop
10000c68:	0043102a 	slt	v0,v0,v1
10000c6c:	1440000a 	bnez	v0,10000c98 <uint16_to_ascii_hex+0x134>
10000c70:	00000000 	nop
10000c74:	93a20024 	lbu	v0,36(sp)
10000c78:	00000000 	nop
10000c7c:	8fa3001c 	lw	v1,28(sp)
10000c80:	00000000 	nop
10000c84:	8fa40014 	lw	a0,20(sp)
10000c88:	00000000 	nop
10000c8c:	24420057 	addiu	v0,v0,87
10000c90:	00831821 	addu	v1,a0,v1
10000c94:	a0620000 	sb	v0,0(v1)
10000c98:	8fa2001c 	lw	v0,28(sp)
10000c9c:	00000000 	nop
10000ca0:	24420001 	addiu	v0,v0,1
10000ca4:	afa2001c 	sw	v0,28(sp)
10000ca8:	080002e0 	j	10000b80 <uint16_to_ascii_hex+0x1c>
10000cac:	00000000 	nop
10000cb0:	8fa2001c 	lw	v0,28(sp)
10000cb4:	00000000 	nop
10000cb8:	8fa30014 	lw	v1,20(sp)
10000cbc:	00000000 	nop
10000cc0:	24040000 	li	a0,0
10000cc4:	00621021 	addu	v0,v1,v0
10000cc8:	a0440000 	sb	a0,0(v0)
10000ccc:	8fa20014 	lw	v0,20(sp)
10000cd0:	00000000 	nop
10000cd4:	27bd0028 	addiu	sp,sp,40
10000cd8:	03e00008 	jr	ra
10000cdc:	00000000 	nop

10000ce0 <uint32_to_ascii_hex>:
10000ce0:	27bdffd8 	addiu	sp,sp,-40
10000ce4:	afa40010 	sw	a0,16(sp)
10000ce8:	afa50014 	sw	a1,20(sp)
10000cec:	afa60018 	sw	a2,24(sp)
10000cf0:	24020008 	li	v0,8
10000cf4:	afa0001c 	sw	zero,28(sp)
10000cf8:	afa20020 	sw	v0,32(sp)
10000cfc:	8fa2001c 	lw	v0,28(sp)
10000d00:	00000000 	nop
10000d04:	8fa30020 	lw	v1,32(sp)
10000d08:	00000000 	nop
10000d0c:	0043102b 	sltu	v0,v0,v1
10000d10:	14400004 	bnez	v0,10000d24 <uint32_to_ascii_hex+0x44>
10000d14:	00000000 	nop
10000d18:	24020000 	li	v0,0
10000d1c:	0800034f 	j	10000d3c <uint32_to_ascii_hex+0x5c>
10000d20:	00000000 	nop
10000d24:	8fa2001c 	lw	v0,28(sp)
10000d28:	00000000 	nop
10000d2c:	24420001 	addiu	v0,v0,1
10000d30:	8fa30018 	lw	v1,24(sp)
10000d34:	00000000 	nop
10000d38:	0043102b 	sltu	v0,v0,v1
10000d3c:	30420001 	andi	v0,v0,0x1
10000d40:	1040003a 	beqz	v0,10000e2c <uint32_to_ascii_hex+0x14c>
10000d44:	00000000 	nop
10000d48:	8fa20020 	lw	v0,32(sp)
10000d4c:	00000000 	nop
10000d50:	2442ffff 	addiu	v0,v0,-1
10000d54:	8fa3001c 	lw	v1,28(sp)
10000d58:	00000000 	nop
10000d5c:	00431023 	subu	v0,v0,v1
10000d60:	8fa30010 	lw	v1,16(sp)
10000d64:	00000000 	nop
10000d68:	00021080 	sll	v0,v0,0x2
10000d6c:	00431006 	srlv	v0,v1,v0
10000d70:	3042000f 	andi	v0,v0,0xf
10000d74:	a3a20024 	sb	v0,36(sp)
10000d78:	83a20024 	lb	v0,36(sp)
10000d7c:	00000000 	nop
10000d80:	04400010 	bltz	v0,10000dc4 <uint32_to_ascii_hex+0xe4>
10000d84:	00000000 	nop
10000d88:	24020009 	li	v0,9
10000d8c:	83a30024 	lb	v1,36(sp)
10000d90:	00000000 	nop
10000d94:	0043102a 	slt	v0,v0,v1
10000d98:	1440000a 	bnez	v0,10000dc4 <uint32_to_ascii_hex+0xe4>
10000d9c:	00000000 	nop
10000da0:	93a20024 	lbu	v0,36(sp)
10000da4:	00000000 	nop
10000da8:	8fa3001c 	lw	v1,28(sp)
10000dac:	00000000 	nop
10000db0:	8fa40014 	lw	a0,20(sp)
10000db4:	00000000 	nop
10000db8:	24420030 	addiu	v0,v0,48
10000dbc:	00831821 	addu	v1,a0,v1
10000dc0:	a0620000 	sb	v0,0(v1)
10000dc4:	83a20024 	lb	v0,36(sp)
10000dc8:	00000000 	nop
10000dcc:	2842000a 	slti	v0,v0,10
10000dd0:	14400010 	bnez	v0,10000e14 <uint32_to_ascii_hex+0x134>
10000dd4:	00000000 	nop
10000dd8:	2402000f 	li	v0,15
10000ddc:	83a30024 	lb	v1,36(sp)
10000de0:	00000000 	nop
10000de4:	0043102a 	slt	v0,v0,v1
10000de8:	1440000a 	bnez	v0,10000e14 <uint32_to_ascii_hex+0x134>
10000dec:	00000000 	nop
10000df0:	93a20024 	lbu	v0,36(sp)
10000df4:	00000000 	nop
10000df8:	8fa3001c 	lw	v1,28(sp)
10000dfc:	00000000 	nop
10000e00:	8fa40014 	lw	a0,20(sp)
10000e04:	00000000 	nop
10000e08:	24420057 	addiu	v0,v0,87
10000e0c:	00831821 	addu	v1,a0,v1
10000e10:	a0620000 	sb	v0,0(v1)
10000e14:	8fa2001c 	lw	v0,28(sp)
10000e18:	00000000 	nop
10000e1c:	24420001 	addiu	v0,v0,1
10000e20:	afa2001c 	sw	v0,28(sp)
10000e24:	0800033f 	j	10000cfc <uint32_to_ascii_hex+0x1c>
10000e28:	00000000 	nop
10000e2c:	8fa2001c 	lw	v0,28(sp)
10000e30:	00000000 	nop
10000e34:	8fa30014 	lw	v1,20(sp)
10000e38:	00000000 	nop
10000e3c:	24040000 	li	a0,0
10000e40:	00621021 	addu	v0,v1,v0
10000e44:	a0440000 	sb	a0,0(v0)
10000e48:	8fa20014 	lw	v0,20(sp)
10000e4c:	00000000 	nop
10000e50:	27bd0028 	addiu	sp,sp,40
10000e54:	03e00008 	jr	ra
10000e58:	00000000 	nop

10000e5c <run_and_time>:
10000e5c:	27bdff40 	addiu	sp,sp,-192
10000e60:	afbf00bc 	sw	ra,188(sp)
10000e64:	afb000b0 	sw	s0,176(sp)
10000e68:	afb100b4 	sw	s1,180(sp)
10000e6c:	3c108000 	lui	s0,0x8000
10000e70:	36020018 	ori	v0,s0,0x18
10000e74:	afa40020 	sw	a0,32(sp)
10000e78:	ac400000 	sw	zero,0(v0)
10000e7c:	8fa20020 	lw	v0,32(sp)
10000e80:	00000000 	nop
10000e84:	0040f809 	jalr	v0
10000e88:	00000000 	nop
10000e8c:	36030010 	ori	v1,s0,0x10
10000e90:	afa20024 	sw	v0,36(sp)
10000e94:	8c620000 	lw	v0,0(v1)
10000e98:	00000000 	nop
10000e9c:	36030014 	ori	v1,s0,0x14
10000ea0:	afa20028 	sw	v0,40(sp)
10000ea4:	8c620000 	lw	v0,0(v1)
10000ea8:	00000000 	nop
10000eac:	afa2002c 	sw	v0,44(sp)
10000eb0:	3c021000 	lui	v0,0x1000
10000eb4:	24441608 	addiu	a0,v0,5640
10000eb8:	0c00053d 	jal	100014f4 <uwrite_int8s>
10000ebc:	00000000 	nop
10000ec0:	8fa40024 	lw	a0,36(sp)
10000ec4:	00000000 	nop
10000ec8:	27b00030 	addiu	s0,sp,48
10000ecc:	24110080 	li	s1,128
10000ed0:	00102821 	addu	a1,zero,s0
10000ed4:	00113021 	addu	a2,zero,s1
10000ed8:	0c000338 	jal	10000ce0 <uint32_to_ascii_hex>
10000edc:	00000000 	nop
10000ee0:	00022021 	addu	a0,zero,v0
10000ee4:	0c00053d 	jal	100014f4 <uwrite_int8s>
10000ee8:	00000000 	nop
10000eec:	3c021000 	lui	v0,0x1000
10000ef0:	24441614 	addiu	a0,v0,5652
10000ef4:	0c00053d 	jal	100014f4 <uwrite_int8s>
10000ef8:	00000000 	nop
10000efc:	8fa40028 	lw	a0,40(sp)
10000f00:	00000000 	nop
10000f04:	00102821 	addu	a1,zero,s0
10000f08:	00113021 	addu	a2,zero,s1
10000f0c:	0c000338 	jal	10000ce0 <uint32_to_ascii_hex>
10000f10:	00000000 	nop
10000f14:	00022021 	addu	a0,zero,v0
10000f18:	0c00053d 	jal	100014f4 <uwrite_int8s>
10000f1c:	00000000 	nop
10000f20:	3c021000 	lui	v0,0x1000
10000f24:	24441640 	addiu	a0,v0,5696
10000f28:	0c00053d 	jal	100014f4 <uwrite_int8s>
10000f2c:	00000000 	nop
10000f30:	8fa4002c 	lw	a0,44(sp)
10000f34:	00000000 	nop
10000f38:	00102821 	addu	a1,zero,s0
10000f3c:	00113021 	addu	a2,zero,s1
10000f40:	0c000338 	jal	10000ce0 <uint32_to_ascii_hex>
10000f44:	00000000 	nop
10000f48:	00022021 	addu	a0,zero,v0
10000f4c:	0c00053d 	jal	100014f4 <uwrite_int8s>
10000f50:	00000000 	nop
10000f54:	3c021000 	lui	v0,0x1000
10000f58:	24441624 	addiu	a0,v0,5668
10000f5c:	0c00053d 	jal	100014f4 <uwrite_int8s>
10000f60:	00000000 	nop
10000f64:	8fb100b4 	lw	s1,180(sp)
10000f68:	00000000 	nop
10000f6c:	8fb000b0 	lw	s0,176(sp)
10000f70:	00000000 	nop
10000f74:	8fbf00bc 	lw	ra,188(sp)
10000f78:	00000000 	nop
10000f7c:	27bd00c0 	addiu	sp,sp,192
10000f80:	03e00008 	jr	ra
10000f84:	00000000 	nop

10000f88 <times>:
10000f88:	27bdffd8 	addiu	sp,sp,-40
10000f8c:	afa40010 	sw	a0,16(sp)
10000f90:	afa50014 	sw	a1,20(sp)
10000f94:	8fa20010 	lw	v0,16(sp)
10000f98:	00000000 	nop
10000f9c:	000217c2 	srl	v0,v0,0x1f
10000fa0:	afa20018 	sw	v0,24(sp)
10000fa4:	8fa20014 	lw	v0,20(sp)
10000fa8:	00000000 	nop
10000fac:	000217c2 	srl	v0,v0,0x1f
10000fb0:	afa2001c 	sw	v0,28(sp)
10000fb4:	afa00020 	sw	zero,32(sp)
10000fb8:	8fa20018 	lw	v0,24(sp)
10000fbc:	00000000 	nop
10000fc0:	10400006 	beqz	v0,10000fdc <times+0x54>
10000fc4:	00000000 	nop
10000fc8:	24020000 	li	v0,0
10000fcc:	8fa30010 	lw	v1,16(sp)
10000fd0:	00000000 	nop
10000fd4:	00431023 	subu	v0,v0,v1
10000fd8:	afa20010 	sw	v0,16(sp)
10000fdc:	8fa2001c 	lw	v0,28(sp)
10000fe0:	00000000 	nop
10000fe4:	10400006 	beqz	v0,10001000 <times+0x78>
10000fe8:	00000000 	nop
10000fec:	24020000 	li	v0,0
10000ff0:	8fa30014 	lw	v1,20(sp)
10000ff4:	00000000 	nop
10000ff8:	00431023 	subu	v0,v0,v1
10000ffc:	afa20014 	sw	v0,20(sp)
10001000:	8fa20014 	lw	v0,20(sp)
10001004:	00000000 	nop
10001008:	10400015 	beqz	v0,10001060 <times+0xd8>
1000100c:	00000000 	nop
10001010:	93a20017 	lbu	v0,23(sp)
10001014:	00000000 	nop
10001018:	30420001 	andi	v0,v0,0x1
1000101c:	10400007 	beqz	v0,1000103c <times+0xb4>
10001020:	00000000 	nop
10001024:	8fa20010 	lw	v0,16(sp)
10001028:	00000000 	nop
1000102c:	8fa30020 	lw	v1,32(sp)
10001030:	00000000 	nop
10001034:	00621021 	addu	v0,v1,v0
10001038:	afa20020 	sw	v0,32(sp)
1000103c:	8fa20010 	lw	v0,16(sp)
10001040:	00000000 	nop
10001044:	00021040 	sll	v0,v0,0x1
10001048:	afa20010 	sw	v0,16(sp)
1000104c:	8fa20014 	lw	v0,20(sp)
10001050:	00000000 	nop
10001054:	00021043 	sra	v0,v0,0x1
10001058:	080003ff 	j	10000ffc <times+0x74>
1000105c:	00000000 	nop
10001060:	8fa20018 	lw	v0,24(sp)
10001064:	00000000 	nop
10001068:	10400005 	beqz	v0,10001080 <times+0xf8>
1000106c:	00000000 	nop
10001070:	8fa2001c 	lw	v0,28(sp)
10001074:	00000000 	nop
10001078:	10400009 	beqz	v0,100010a0 <times+0x118>
1000107c:	00000000 	nop
10001080:	8fa20018 	lw	v0,24(sp)
10001084:	00000000 	nop
10001088:	1440000a 	bnez	v0,100010b4 <times+0x12c>
1000108c:	00000000 	nop
10001090:	8fa2001c 	lw	v0,28(sp)
10001094:	00000000 	nop
10001098:	10400006 	beqz	v0,100010b4 <times+0x12c>
1000109c:	00000000 	nop
100010a0:	24020000 	li	v0,0
100010a4:	8fa30020 	lw	v1,32(sp)
100010a8:	00000000 	nop
100010ac:	00431023 	subu	v0,v0,v1
100010b0:	afa20020 	sw	v0,32(sp)
100010b4:	8fa20020 	lw	v0,32(sp)
100010b8:	00000000 	nop
100010bc:	27bd0028 	addiu	sp,sp,40
100010c0:	03e00008 	jr	ra
100010c4:	00000000 	nop

100010c8 <mmult>:
100010c8:	27bdff98 	addiu	sp,sp,-104
100010cc:	afbf0060 	sw	ra,96(sp)
100010d0:	afb00058 	sw	s0,88(sp)
100010d4:	24020040 	li	v0,64
100010d8:	afa00020 	sw	zero,32(sp)
100010dc:	3c031001 	lui	v1,0x1001
100010e0:	24041000 	li	a0,4096
100010e4:	afa20024 	sw	v0,36(sp)
100010e8:	34628000 	ori	v0,v1,0x8000
100010ec:	afa40028 	sw	a0,40(sp)
100010f0:	afa2002c 	sw	v0,44(sp)
100010f4:	8fa30028 	lw	v1,40(sp)
100010f8:	00000000 	nop
100010fc:	00031880 	sll	v1,v1,0x2
10001100:	00621821 	addu	v1,v1,v0
10001104:	afa30030 	sw	v1,48(sp)
10001108:	8fa30028 	lw	v1,40(sp)
1000110c:	00000000 	nop
10001110:	00031880 	sll	v1,v1,0x2
10001114:	00631821 	addu	v1,v1,v1
10001118:	00621021 	addu	v0,v1,v0
1000111c:	afa20034 	sw	v0,52(sp)
10001120:	afa00038 	sw	zero,56(sp)
10001124:	8fa20038 	lw	v0,56(sp)
10001128:	00000000 	nop
1000112c:	8fa30024 	lw	v1,36(sp)
10001130:	00000000 	nop
10001134:	0043102a 	slt	v0,v0,v1
10001138:	10400064 	beqz	v0,100012cc <mmult+0x204>
1000113c:	00000000 	nop
10001140:	afa0003c 	sw	zero,60(sp)
10001144:	8fa2003c 	lw	v0,60(sp)
10001148:	00000000 	nop
1000114c:	8fa30024 	lw	v1,36(sp)
10001150:	00000000 	nop
10001154:	0043102a 	slt	v0,v0,v1
10001158:	10400056 	beqz	v0,100012b4 <mmult+0x1ec>
1000115c:	00000000 	nop
10001160:	8fa20038 	lw	v0,56(sp)
10001164:	00000000 	nop
10001168:	8fa3003c 	lw	v1,60(sp)
1000116c:	00000000 	nop
10001170:	8fa40034 	lw	a0,52(sp)
10001174:	00000000 	nop
10001178:	00021200 	sll	v0,v0,0x8
1000117c:	00821021 	addu	v0,a0,v0
10001180:	00031880 	sll	v1,v1,0x2
10001184:	00431021 	addu	v0,v0,v1
10001188:	afa20044 	sw	v0,68(sp)
1000118c:	ac400000 	sw	zero,0(v0)
10001190:	afa00040 	sw	zero,64(sp)
10001194:	8fa20040 	lw	v0,64(sp)
10001198:	00000000 	nop
1000119c:	8fa30024 	lw	v1,36(sp)
100011a0:	00000000 	nop
100011a4:	0043102a 	slt	v0,v0,v1
100011a8:	10400034 	beqz	v0,1000127c <mmult+0x1b4>
100011ac:	00000000 	nop
100011b0:	8fa20038 	lw	v0,56(sp)
100011b4:	00000000 	nop
100011b8:	8fa30040 	lw	v1,64(sp)
100011bc:	00000000 	nop
100011c0:	00021200 	sll	v0,v0,0x8
100011c4:	8fa4002c 	lw	a0,44(sp)
100011c8:	00000000 	nop
100011cc:	00821021 	addu	v0,a0,v0
100011d0:	00031880 	sll	v1,v1,0x2
100011d4:	00431021 	addu	v0,v0,v1
100011d8:	8c420000 	lw	v0,0(v0)
100011dc:	00000000 	nop
100011e0:	afa20048 	sw	v0,72(sp)
100011e4:	8fa20040 	lw	v0,64(sp)
100011e8:	00000000 	nop
100011ec:	8fa3003c 	lw	v1,60(sp)
100011f0:	00000000 	nop
100011f4:	8fa40030 	lw	a0,48(sp)
100011f8:	00000000 	nop
100011fc:	00021200 	sll	v0,v0,0x8
10001200:	00821021 	addu	v0,a0,v0
10001204:	00031880 	sll	v1,v1,0x2
10001208:	00431021 	addu	v0,v0,v1
1000120c:	8c450000 	lw	a1,0(v0)
10001210:	00000000 	nop
10001214:	afa5004c 	sw	a1,76(sp)
10001218:	8fa40048 	lw	a0,72(sp)
1000121c:	00000000 	nop
10001220:	0c0003e2 	jal	10000f88 <times>
10001224:	00000000 	nop
10001228:	afa20050 	sw	v0,80(sp)
1000122c:	8fa20044 	lw	v0,68(sp)
10001230:	00000000 	nop
10001234:	8c500000 	lw	s0,0(v0)
10001238:	00000000 	nop
1000123c:	8fa40048 	lw	a0,72(sp)
10001240:	00000000 	nop
10001244:	8fa5004c 	lw	a1,76(sp)
10001248:	00000000 	nop
1000124c:	0c0003e2 	jal	10000f88 <times>
10001250:	00000000 	nop
10001254:	02021021 	addu	v0,s0,v0
10001258:	8fa30044 	lw	v1,68(sp)
1000125c:	00000000 	nop
10001260:	ac620000 	sw	v0,0(v1)
10001264:	8fa20040 	lw	v0,64(sp)
10001268:	00000000 	nop
1000126c:	24420001 	addiu	v0,v0,1
10001270:	afa20040 	sw	v0,64(sp)
10001274:	08000465 	j	10001194 <mmult+0xcc>
10001278:	00000000 	nop
1000127c:	8fa20044 	lw	v0,68(sp)
10001280:	00000000 	nop
10001284:	8c420000 	lw	v0,0(v0)
10001288:	00000000 	nop
1000128c:	8fa30020 	lw	v1,32(sp)
10001290:	00000000 	nop
10001294:	00621021 	addu	v0,v1,v0
10001298:	afa20020 	sw	v0,32(sp)
1000129c:	8fa2003c 	lw	v0,60(sp)
100012a0:	00000000 	nop
100012a4:	24420001 	addiu	v0,v0,1
100012a8:	afa2003c 	sw	v0,60(sp)
100012ac:	08000451 	j	10001144 <mmult+0x7c>
100012b0:	00000000 	nop
100012b4:	8fa20038 	lw	v0,56(sp)
100012b8:	00000000 	nop
100012bc:	24420001 	addiu	v0,v0,1
100012c0:	afa20038 	sw	v0,56(sp)
100012c4:	08000449 	j	10001124 <mmult+0x5c>
100012c8:	00000000 	nop
100012cc:	8fa20020 	lw	v0,32(sp)
100012d0:	00000000 	nop
100012d4:	8fb00058 	lw	s0,88(sp)
100012d8:	00000000 	nop
100012dc:	8fbf0060 	lw	ra,96(sp)
100012e0:	00000000 	nop
100012e4:	27bd0068 	addiu	sp,sp,104
100012e8:	03e00008 	jr	ra
100012ec:	00000000 	nop

100012f0 <generate_matrices>:
100012f0:	27bdffe0 	addiu	sp,sp,-32
100012f4:	3c021001 	lui	v0,0x1001
100012f8:	34428000 	ori	v0,v0,0x8000
100012fc:	24030040 	li	v1,64
10001300:	afa20010 	sw	v0,16(sp)
10001304:	afa30014 	sw	v1,20(sp)
10001308:	afa00018 	sw	zero,24(sp)
1000130c:	8fa20018 	lw	v0,24(sp)
10001310:	00000000 	nop
10001314:	8fa30014 	lw	v1,20(sp)
10001318:	00000000 	nop
1000131c:	0043102a 	slt	v0,v0,v1
10001320:	10400022 	beqz	v0,100013ac <generate_matrices+0xbc>
10001324:	00000000 	nop
10001328:	afa0001c 	sw	zero,28(sp)
1000132c:	8fa2001c 	lw	v0,28(sp)
10001330:	00000000 	nop
10001334:	8fa30014 	lw	v1,20(sp)
10001338:	00000000 	nop
1000133c:	0043102a 	slt	v0,v0,v1
10001340:	10400014 	beqz	v0,10001394 <generate_matrices+0xa4>
10001344:	00000000 	nop
10001348:	8fa20018 	lw	v0,24(sp)
1000134c:	00000000 	nop
10001350:	8fa3001c 	lw	v1,28(sp)
10001354:	00000000 	nop
10001358:	00431026 	xor	v0,v0,v1
1000135c:	8fa30010 	lw	v1,16(sp)
10001360:	00000000 	nop
10001364:	2c420001 	sltiu	v0,v0,1
10001368:	ac620000 	sw	v0,0(v1)
1000136c:	8fa20010 	lw	v0,16(sp)
10001370:	00000000 	nop
10001374:	24420004 	addiu	v0,v0,4
10001378:	afa20010 	sw	v0,16(sp)
1000137c:	8fa2001c 	lw	v0,28(sp)
10001380:	00000000 	nop
10001384:	24420001 	addiu	v0,v0,1
10001388:	afa2001c 	sw	v0,28(sp)
1000138c:	080004cb 	j	1000132c <generate_matrices+0x3c>
10001390:	00000000 	nop
10001394:	8fa20018 	lw	v0,24(sp)
10001398:	00000000 	nop
1000139c:	24420001 	addiu	v0,v0,1
100013a0:	afa20018 	sw	v0,24(sp)
100013a4:	080004c3 	j	1000130c <generate_matrices+0x1c>
100013a8:	00000000 	nop
100013ac:	afa00018 	sw	zero,24(sp)
100013b0:	8fa20018 	lw	v0,24(sp)
100013b4:	00000000 	nop
100013b8:	8fa30014 	lw	v1,20(sp)
100013bc:	00000000 	nop
100013c0:	0043102a 	slt	v0,v0,v1
100013c4:	1040001e 	beqz	v0,10001440 <generate_matrices+0x150>
100013c8:	00000000 	nop
100013cc:	afa0001c 	sw	zero,28(sp)
100013d0:	8fa2001c 	lw	v0,28(sp)
100013d4:	00000000 	nop
100013d8:	8fa30014 	lw	v1,20(sp)
100013dc:	00000000 	nop
100013e0:	0043102a 	slt	v0,v0,v1
100013e4:	10400010 	beqz	v0,10001428 <generate_matrices+0x138>
100013e8:	00000000 	nop
100013ec:	8fa2001c 	lw	v0,28(sp)
100013f0:	00000000 	nop
100013f4:	8fa30010 	lw	v1,16(sp)
100013f8:	00000000 	nop
100013fc:	ac620000 	sw	v0,0(v1)
10001400:	8fa20010 	lw	v0,16(sp)
10001404:	00000000 	nop
10001408:	24420004 	addiu	v0,v0,4
1000140c:	afa20010 	sw	v0,16(sp)
10001410:	8fa2001c 	lw	v0,28(sp)
10001414:	00000000 	nop
10001418:	24420001 	addiu	v0,v0,1
1000141c:	afa2001c 	sw	v0,28(sp)
10001420:	080004f4 	j	100013d0 <generate_matrices+0xe0>
10001424:	00000000 	nop
10001428:	8fa20018 	lw	v0,24(sp)
1000142c:	00000000 	nop
10001430:	24420001 	addiu	v0,v0,1
10001434:	afa20018 	sw	v0,24(sp)
10001438:	080004ec 	j	100013b0 <generate_matrices+0xc0>
1000143c:	00000000 	nop
10001440:	27bd0020 	addiu	sp,sp,32
10001444:	03e00008 	jr	ra
10001448:	00000000 	nop

1000144c <main>:
1000144c:	27bdffc0 	addiu	sp,sp,-64
10001450:	afbf003c 	sw	ra,60(sp)
10001454:	afa00020 	sw	zero,32(sp)
10001458:	afa40024 	sw	a0,36(sp)
1000145c:	afa50028 	sw	a1,40(sp)
10001460:	0c0004bc 	jal	100012f0 <generate_matrices>
10001464:	00000000 	nop
10001468:	3c021000 	lui	v0,0x1000
1000146c:	244410c8 	addiu	a0,v0,4296
10001470:	0c000397 	jal	10000e5c <run_and_time>
10001474:	00000000 	nop
10001478:	3c021000 	lui	v0,0x1000
1000147c:	24441628 	addiu	a0,v0,5672
10001480:	0c0001f0 	jal	100007c0 <ascii_hex_to_uint32>
10001484:	00000000 	nop
10001488:	afa2002c 	sw	v0,44(sp)
1000148c:	afa20030 	sw	v0,48(sp)
10001490:	0040f809 	jalr	v0
10001494:	00000000 	nop
10001498:	24020000 	li	v0,0
1000149c:	8fbf003c 	lw	ra,60(sp)
100014a0:	00000000 	nop
100014a4:	27bd0040 	addiu	sp,sp,64
100014a8:	03e00008 	jr	ra
100014ac:	00000000 	nop

100014b0 <uwrite_int8>:
100014b0:	27bdffe8 	addiu	sp,sp,-24
100014b4:	a3a40010 	sb	a0,16(sp)
100014b8:	3c028000 	lui	v0,0x8000
100014bc:	34420000 	ori	v0,v0,0x0
100014c0:	8c420000 	lw	v0,0(v0)
100014c4:	00000000 	nop
100014c8:	30420001 	andi	v0,v0,0x1
100014cc:	1040fffa 	beqz	v0,100014b8 <uwrite_int8+0x8>
100014d0:	00000000 	nop
100014d4:	3c028000 	lui	v0,0x8000
100014d8:	83a30010 	lb	v1,16(sp)
100014dc:	00000000 	nop
100014e0:	34420008 	ori	v0,v0,0x8
100014e4:	ac430000 	sw	v1,0(v0)
100014e8:	27bd0018 	addiu	sp,sp,24
100014ec:	03e00008 	jr	ra
100014f0:	00000000 	nop

100014f4 <uwrite_int8s>:
100014f4:	27bdffd0 	addiu	sp,sp,-48
100014f8:	afbf002c 	sw	ra,44(sp)
100014fc:	afa40020 	sw	a0,32(sp)
10001500:	afa00024 	sw	zero,36(sp)
10001504:	8fa20020 	lw	v0,32(sp)
10001508:	00000000 	nop
1000150c:	8fa30024 	lw	v1,36(sp)
10001510:	00000000 	nop
10001514:	00431021 	addu	v0,v0,v1
10001518:	80420000 	lb	v0,0(v0)
1000151c:	00000000 	nop
10001520:	10400010 	beqz	v0,10001564 <uwrite_int8s+0x70>
10001524:	00000000 	nop
10001528:	8fa20020 	lw	v0,32(sp)
1000152c:	00000000 	nop
10001530:	8fa30024 	lw	v1,36(sp)
10001534:	00000000 	nop
10001538:	00431021 	addu	v0,v0,v1
1000153c:	80440000 	lb	a0,0(v0)
10001540:	00000000 	nop
10001544:	0c00052c 	jal	100014b0 <uwrite_int8>
10001548:	00000000 	nop
1000154c:	8fa20024 	lw	v0,36(sp)
10001550:	00000000 	nop
10001554:	24420001 	addiu	v0,v0,1
10001558:	afa20024 	sw	v0,36(sp)
1000155c:	08000541 	j	10001504 <uwrite_int8s+0x10>
10001560:	00000000 	nop
10001564:	8fbf002c 	lw	ra,44(sp)
10001568:	00000000 	nop
1000156c:	27bd0030 	addiu	sp,sp,48
10001570:	03e00008 	jr	ra
10001574:	00000000 	nop

10001578 <uread_int8>:
10001578:	27bdffd0 	addiu	sp,sp,-48
1000157c:	afbf002c 	sw	ra,44(sp)
10001580:	3c028000 	lui	v0,0x8000
10001584:	34420004 	ori	v0,v0,0x4
10001588:	8c420000 	lw	v0,0(v0)
1000158c:	00000000 	nop
10001590:	30420001 	andi	v0,v0,0x1
10001594:	1040fffa 	beqz	v0,10001580 <uread_int8+0x8>
10001598:	00000000 	nop
1000159c:	3c028000 	lui	v0,0x8000
100015a0:	3442000c 	ori	v0,v0,0xc
100015a4:	8c420000 	lw	v0,0(v0)
100015a8:	00000000 	nop
100015ac:	a3a20020 	sb	v0,32(sp)
100015b0:	83a20020 	lb	v0,32(sp)
100015b4:	00000000 	nop
100015b8:	2403000d 	li	v1,13
100015bc:	14430007 	bne	v0,v1,100015dc <uread_int8+0x64>
100015c0:	00000000 	nop
100015c4:	3c021000 	lui	v0,0x1000
100015c8:	24441624 	addiu	a0,v0,5668
100015cc:	0c00053d 	jal	100014f4 <uwrite_int8s>
100015d0:	00000000 	nop
100015d4:	0800057b 	j	100015ec <uread_int8+0x74>
100015d8:	00000000 	nop
100015dc:	83a40020 	lb	a0,32(sp)
100015e0:	00000000 	nop
100015e4:	0c00052c 	jal	100014b0 <uwrite_int8>
100015e8:	00000000 	nop
100015ec:	83a20020 	lb	v0,32(sp)
100015f0:	00000000 	nop
100015f4:	8fbf002c 	lw	ra,44(sp)
100015f8:	00000000 	nop
100015fc:	27bd0030 	addiu	sp,sp,48
10001600:	03e00008 	jr	ra
10001604:	00000000 	nop

Disassembly of section .rodata.str1.4:

10001608 <.rodata.str1.4>:
10001608:	52657375 	0x52657375
1000160c:	6c743a20 	0x6c743a20
10001610:	00000000 	nop
10001614:	0d0a4379 	jal	14290de4 <uread_int8+0x428f86c>
10001618:	636c6520 	0x636c6520
1000161c:	436f756e 	c0	0x16f756e
10001620:	743a2000 	jalx	10e88000 <uread_int8+0xe86a88>
10001624:	0d0a0000 	jal	14280000 <uread_int8+0x427ea88>
10001628:	34303030 	ori	s0,at,0x3030
1000162c:	30303030 	andi	s0,at,0x3030
10001630:	00000000 	nop

Disassembly of section .rodata.str1.16:

10001640 <.rodata.str1.16>:
10001640:	0d0a496e 	jal	142925b8 <uread_int8+0x4291040>
10001644:	73747275 	0x73747275
10001648:	6374696f 	0x6374696f
1000164c:	6e20436f 	0x6e20436f
10001650:	756e743a 	jalx	15b9d0e8 <uread_int8+0x5b9bb70>
10001654:	20000000 	addi	zero,zero,0
	...

Disassembly of section .reginfo:

00000000 <.reginfo>:
   0:	a000007c 	sb	zero,124(zero)
	...

Disassembly of section .pdr:

00000000 <.pdr>:
   0:	10000008 	b	24 <_start-0xfffffdc>
   4:	00000000 	nop
	...
  14:	00000020 	add	zero,zero,zero
  18:	0000001d 	0x1d
  1c:	0000001f 	0x1f
  20:	1000012c 	b	4d4 <_start-0xffffb2c>
  24:	00000000 	nop
	...
  34:	00000020 	add	zero,zero,zero
  38:	0000001d 	0x1d
  3c:	0000001f 	0x1f
  40:	10000250 	b	984 <_start-0xffff67c>
  44:	00000000 	nop
	...
  54:	00000020 	add	zero,zero,zero
  58:	0000001d 	0x1d
  5c:	0000001f 	0x1f
  60:	10000370 	b	e24 <_start-0xffff1dc>
  64:	00000000 	nop
	...
  74:	00000020 	add	zero,zero,zero
  78:	0000001d 	0x1d
  7c:	0000001f 	0x1f
  80:	10000598 	b	16e4 <_start-0xfffe91c>
  84:	00000000 	nop
	...
  94:	00000020 	add	zero,zero,zero
  98:	0000001d 	0x1d
  9c:	0000001f 	0x1f
  a0:	100007c0 	b	1fa4 <_start-0xfffe05c>
  a4:	00000000 	nop
	...
  b4:	00000020 	add	zero,zero,zero
  b8:	0000001d 	0x1d
  bc:	0000001f 	0x1f
  c0:	100009e8 	b	2864 <_start-0xfffd79c>
  c4:	00000000 	nop
	...
  d4:	00000028 	0x28
  d8:	0000001d 	0x1d
  dc:	0000001f 	0x1f
  e0:	10000b64 	b	2e74 <_start-0xfffd18c>
  e4:	00000000 	nop
	...
  f4:	00000028 	0x28
  f8:	0000001d 	0x1d
  fc:	0000001f 	0x1f
 100:	10000ce0 	b	3484 <_start-0xfffcb7c>
 104:	00000000 	nop
	...
 114:	00000028 	0x28
 118:	0000001d 	0x1d
 11c:	0000001f 	0x1f
 120:	10000e5c 	b	3a94 <_start-0xfffc56c>
 124:	800c0000 	lb	t4,0(zero)
 128:	fffffffc 	0xfffffffc
	...
 134:	000000c0 	sll	zero,zero,0x3
 138:	0000001d 	0x1d
 13c:	0000001f 	0x1f
 140:	10000f88 	b	3f64 <_start-0xfffc09c>
 144:	00000000 	nop
	...
 154:	00000028 	0x28
 158:	0000001d 	0x1d
 15c:	0000001f 	0x1f
 160:	100010c8 	b	4484 <_start-0xfffbb7c>
 164:	80040000 	lb	a0,0(zero)
 168:	fffffff8 	0xfffffff8
	...
 174:	00000068 	0x68
 178:	0000001d 	0x1d
 17c:	0000001f 	0x1f
 180:	100012f0 	b	4d44 <_start-0xfffb2bc>
 184:	00000000 	nop
	...
 194:	00000020 	add	zero,zero,zero
 198:	0000001d 	0x1d
 19c:	0000001f 	0x1f
 1a0:	1000144c 	b	52d4 <_start-0xfffad2c>
 1a4:	80000000 	lb	zero,0(zero)
 1a8:	fffffffc 	0xfffffffc
	...
 1b4:	00000040 	sll	zero,zero,0x1
 1b8:	0000001d 	0x1d
 1bc:	0000001f 	0x1f
 1c0:	100014b0 	b	5484 <_start-0xfffab7c>
 1c4:	00000000 	nop
	...
 1d4:	00000018 	mult	zero,zero
 1d8:	0000001d 	0x1d
 1dc:	0000001f 	0x1f
 1e0:	100014f4 	b	55b4 <_start-0xfffaa4c>
 1e4:	80000000 	lb	zero,0(zero)
 1e8:	fffffffc 	0xfffffffc
	...
 1f4:	00000030 	0x30
 1f8:	0000001d 	0x1d
 1fc:	0000001f 	0x1f
 200:	10001578 	b	57e4 <_start-0xfffa81c>
 204:	80000000 	lb	zero,0(zero)
 208:	fffffffc 	0xfffffffc
	...
 214:	00000030 	0x30
 218:	0000001d 	0x1d
 21c:	0000001f 	0x1f
