
bios150v3.elf:     file format elf32-bigmips


Disassembly of section .text:

40000000 <_start>:
40000000:	0c00043d 	jal	400010f4 <main>
40000004:	3c1d1001 	lui	sp,0x1001

40000008 <ascii_dec_to_uint8>:
40000008:	27bdffe0 	addiu	sp,sp,-32
4000000c:	24020000 	li	v0,0
40000010:	afa40010 	sw	a0,16(sp)
40000014:	a3a20014 	sb	v0,20(sp)
40000018:	afa00018 	sw	zero,24(sp)
4000001c:	8fa20018 	lw	v0,24(sp)
40000020:	00000000 	nop
40000024:	2c420003 	sltiu	v0,v0,3
40000028:	14400004 	bnez	v0,4000003c <ascii_dec_to_uint8+0x34>
4000002c:	00000000 	nop
40000030:	24020000 	li	v0,0
40000034:	08000019 	j	40000064 <ascii_dec_to_uint8+0x5c>
40000038:	00000000 	nop
4000003c:	8fa20010 	lw	v0,16(sp)
40000040:	00000000 	nop
40000044:	8fa30018 	lw	v1,24(sp)
40000048:	00000000 	nop
4000004c:	00431021 	addu	v0,v0,v1
40000050:	80420000 	lb	v0,0(v0)
40000054:	00000000 	nop
40000058:	24030000 	li	v1,0
4000005c:	00431026 	xor	v0,v0,v1
40000060:	0002102b 	sltu	v0,zero,v0
40000064:	30420001 	andi	v0,v0,0x1
40000068:	1040002b 	beqz	v0,40000118 <ascii_dec_to_uint8+0x110>
4000006c:	00000000 	nop
40000070:	8fa20010 	lw	v0,16(sp)
40000074:	00000000 	nop
40000078:	8fa30018 	lw	v1,24(sp)
4000007c:	00000000 	nop
40000080:	00431021 	addu	v0,v0,v1
40000084:	80420000 	lb	v0,0(v0)
40000088:	00000000 	nop
4000008c:	28420030 	slti	v0,v0,48
40000090:	1440001b 	bnez	v0,40000100 <ascii_dec_to_uint8+0xf8>
40000094:	00000000 	nop
40000098:	8fa20010 	lw	v0,16(sp)
4000009c:	00000000 	nop
400000a0:	8fa30018 	lw	v1,24(sp)
400000a4:	00000000 	nop
400000a8:	00431021 	addu	v0,v0,v1
400000ac:	24030039 	li	v1,57
400000b0:	80420000 	lb	v0,0(v0)
400000b4:	00000000 	nop
400000b8:	0062102a 	slt	v0,v1,v0
400000bc:	14400010 	bnez	v0,40000100 <ascii_dec_to_uint8+0xf8>
400000c0:	00000000 	nop
400000c4:	93a20014 	lbu	v0,20(sp)
400000c8:	00000000 	nop
400000cc:	8fa30018 	lw	v1,24(sp)
400000d0:	00000000 	nop
400000d4:	8fa40010 	lw	a0,16(sp)
400000d8:	00000000 	nop
400000dc:	00831821 	addu	v1,a0,v1
400000e0:	000220c0 	sll	a0,v0,0x3
400000e4:	00021040 	sll	v0,v0,0x1
400000e8:	90630000 	lbu	v1,0(v1)
400000ec:	00000000 	nop
400000f0:	00821021 	addu	v0,a0,v0
400000f4:	00621021 	addu	v0,v1,v0
400000f8:	2442ffd0 	addiu	v0,v0,-48
400000fc:	a3a20014 	sb	v0,20(sp)
40000100:	8fa20018 	lw	v0,24(sp)
40000104:	00000000 	nop
40000108:	24420001 	addiu	v0,v0,1
4000010c:	afa20018 	sw	v0,24(sp)
40000110:	08000007 	j	4000001c <ascii_dec_to_uint8+0x14>
40000114:	00000000 	nop
40000118:	93a20014 	lbu	v0,20(sp)
4000011c:	00000000 	nop
40000120:	27bd0020 	addiu	sp,sp,32
40000124:	03e00008 	jr	ra
40000128:	00000000 	nop

4000012c <ascii_dec_to_uint16>:
4000012c:	27bdffe0 	addiu	sp,sp,-32
40000130:	24020000 	li	v0,0
40000134:	afa40010 	sw	a0,16(sp)
40000138:	a7a20014 	sh	v0,20(sp)
4000013c:	afa00018 	sw	zero,24(sp)
40000140:	8fa20018 	lw	v0,24(sp)
40000144:	00000000 	nop
40000148:	2c420005 	sltiu	v0,v0,5
4000014c:	14400004 	bnez	v0,40000160 <ascii_dec_to_uint16+0x34>
40000150:	00000000 	nop
40000154:	24020000 	li	v0,0
40000158:	08000062 	j	40000188 <ascii_dec_to_uint16+0x5c>
4000015c:	00000000 	nop
40000160:	8fa20010 	lw	v0,16(sp)
40000164:	00000000 	nop
40000168:	8fa30018 	lw	v1,24(sp)
4000016c:	00000000 	nop
40000170:	00431021 	addu	v0,v0,v1
40000174:	80420000 	lb	v0,0(v0)
40000178:	00000000 	nop
4000017c:	24030000 	li	v1,0
40000180:	00431026 	xor	v0,v0,v1
40000184:	0002102b 	sltu	v0,zero,v0
40000188:	30420001 	andi	v0,v0,0x1
4000018c:	1040002b 	beqz	v0,4000023c <ascii_dec_to_uint16+0x110>
40000190:	00000000 	nop
40000194:	8fa20010 	lw	v0,16(sp)
40000198:	00000000 	nop
4000019c:	8fa30018 	lw	v1,24(sp)
400001a0:	00000000 	nop
400001a4:	00431021 	addu	v0,v0,v1
400001a8:	80420000 	lb	v0,0(v0)
400001ac:	00000000 	nop
400001b0:	28420030 	slti	v0,v0,48
400001b4:	1440001b 	bnez	v0,40000224 <ascii_dec_to_uint16+0xf8>
400001b8:	00000000 	nop
400001bc:	8fa20010 	lw	v0,16(sp)
400001c0:	00000000 	nop
400001c4:	8fa30018 	lw	v1,24(sp)
400001c8:	00000000 	nop
400001cc:	00431021 	addu	v0,v0,v1
400001d0:	24030039 	li	v1,57
400001d4:	80420000 	lb	v0,0(v0)
400001d8:	00000000 	nop
400001dc:	0062102a 	slt	v0,v1,v0
400001e0:	14400010 	bnez	v0,40000224 <ascii_dec_to_uint16+0xf8>
400001e4:	00000000 	nop
400001e8:	97a20014 	lhu	v0,20(sp)
400001ec:	00000000 	nop
400001f0:	8fa30018 	lw	v1,24(sp)
400001f4:	00000000 	nop
400001f8:	8fa40010 	lw	a0,16(sp)
400001fc:	00000000 	nop
40000200:	00831821 	addu	v1,a0,v1
40000204:	000220c0 	sll	a0,v0,0x3
40000208:	00021040 	sll	v0,v0,0x1
4000020c:	80630000 	lb	v1,0(v1)
40000210:	00000000 	nop
40000214:	00821021 	addu	v0,a0,v0
40000218:	00621021 	addu	v0,v1,v0
4000021c:	2442ffd0 	addiu	v0,v0,-48
40000220:	a7a20014 	sh	v0,20(sp)
40000224:	8fa20018 	lw	v0,24(sp)
40000228:	00000000 	nop
4000022c:	24420001 	addiu	v0,v0,1
40000230:	afa20018 	sw	v0,24(sp)
40000234:	08000050 	j	40000140 <ascii_dec_to_uint16+0x14>
40000238:	00000000 	nop
4000023c:	97a20014 	lhu	v0,20(sp)
40000240:	00000000 	nop
40000244:	27bd0020 	addiu	sp,sp,32
40000248:	03e00008 	jr	ra
4000024c:	00000000 	nop

40000250 <ascii_dec_to_uint32>:
40000250:	27bdffe0 	addiu	sp,sp,-32
40000254:	afa40010 	sw	a0,16(sp)
40000258:	afa00014 	sw	zero,20(sp)
4000025c:	afa00018 	sw	zero,24(sp)
40000260:	8fa20018 	lw	v0,24(sp)
40000264:	00000000 	nop
40000268:	2c420009 	sltiu	v0,v0,9
4000026c:	14400004 	bnez	v0,40000280 <ascii_dec_to_uint32+0x30>
40000270:	00000000 	nop
40000274:	24020000 	li	v0,0
40000278:	080000aa 	j	400002a8 <ascii_dec_to_uint32+0x58>
4000027c:	00000000 	nop
40000280:	8fa20010 	lw	v0,16(sp)
40000284:	00000000 	nop
40000288:	8fa30018 	lw	v1,24(sp)
4000028c:	00000000 	nop
40000290:	00431021 	addu	v0,v0,v1
40000294:	80420000 	lb	v0,0(v0)
40000298:	00000000 	nop
4000029c:	24030000 	li	v1,0
400002a0:	00431026 	xor	v0,v0,v1
400002a4:	0002102b 	sltu	v0,zero,v0
400002a8:	30420001 	andi	v0,v0,0x1
400002ac:	1040002b 	beqz	v0,4000035c <ascii_dec_to_uint32+0x10c>
400002b0:	00000000 	nop
400002b4:	8fa20010 	lw	v0,16(sp)
400002b8:	00000000 	nop
400002bc:	8fa30018 	lw	v1,24(sp)
400002c0:	00000000 	nop
400002c4:	00431021 	addu	v0,v0,v1
400002c8:	80420000 	lb	v0,0(v0)
400002cc:	00000000 	nop
400002d0:	28420030 	slti	v0,v0,48
400002d4:	1440001b 	bnez	v0,40000344 <ascii_dec_to_uint32+0xf4>
400002d8:	00000000 	nop
400002dc:	8fa20010 	lw	v0,16(sp)
400002e0:	00000000 	nop
400002e4:	8fa30018 	lw	v1,24(sp)
400002e8:	00000000 	nop
400002ec:	00431021 	addu	v0,v0,v1
400002f0:	24030039 	li	v1,57
400002f4:	80420000 	lb	v0,0(v0)
400002f8:	00000000 	nop
400002fc:	0062102a 	slt	v0,v1,v0
40000300:	14400010 	bnez	v0,40000344 <ascii_dec_to_uint32+0xf4>
40000304:	00000000 	nop
40000308:	8fa20014 	lw	v0,20(sp)
4000030c:	00000000 	nop
40000310:	8fa30018 	lw	v1,24(sp)
40000314:	00000000 	nop
40000318:	8fa40010 	lw	a0,16(sp)
4000031c:	00000000 	nop
40000320:	00831821 	addu	v1,a0,v1
40000324:	000220c0 	sll	a0,v0,0x3
40000328:	00021040 	sll	v0,v0,0x1
4000032c:	80630000 	lb	v1,0(v1)
40000330:	00000000 	nop
40000334:	00821021 	addu	v0,a0,v0
40000338:	00621021 	addu	v0,v1,v0
4000033c:	2442ffd0 	addiu	v0,v0,-48
40000340:	afa20014 	sw	v0,20(sp)
40000344:	8fa20018 	lw	v0,24(sp)
40000348:	00000000 	nop
4000034c:	24420001 	addiu	v0,v0,1
40000350:	afa20018 	sw	v0,24(sp)
40000354:	08000098 	j	40000260 <ascii_dec_to_uint32+0x10>
40000358:	00000000 	nop
4000035c:	8fa20014 	lw	v0,20(sp)
40000360:	00000000 	nop
40000364:	27bd0020 	addiu	sp,sp,32
40000368:	03e00008 	jr	ra
4000036c:	00000000 	nop

40000370 <ascii_hex_to_uint8>:
40000370:	27bdffe0 	addiu	sp,sp,-32
40000374:	24020000 	li	v0,0
40000378:	afa40010 	sw	a0,16(sp)
4000037c:	a3a20014 	sb	v0,20(sp)
40000380:	a3a20018 	sb	v0,24(sp)
40000384:	93a20018 	lbu	v0,24(sp)
40000388:	00000000 	nop
4000038c:	2c420002 	sltiu	v0,v0,2
40000390:	14400004 	bnez	v0,400003a4 <ascii_hex_to_uint8+0x34>
40000394:	00000000 	nop
40000398:	24020000 	li	v0,0
4000039c:	080000f3 	j	400003cc <ascii_hex_to_uint8+0x5c>
400003a0:	00000000 	nop
400003a4:	8fa20010 	lw	v0,16(sp)
400003a8:	00000000 	nop
400003ac:	93a30018 	lbu	v1,24(sp)
400003b0:	00000000 	nop
400003b4:	00431021 	addu	v0,v0,v1
400003b8:	80420000 	lb	v0,0(v0)
400003bc:	00000000 	nop
400003c0:	24030000 	li	v1,0
400003c4:	00431026 	xor	v0,v0,v1
400003c8:	0002102b 	sltu	v0,zero,v0
400003cc:	30420001 	andi	v0,v0,0x1
400003d0:	1040006c 	beqz	v0,40000584 <ascii_hex_to_uint8+0x214>
400003d4:	00000000 	nop
400003d8:	8fa20010 	lw	v0,16(sp)
400003dc:	00000000 	nop
400003e0:	93a30018 	lbu	v1,24(sp)
400003e4:	00000000 	nop
400003e8:	00431021 	addu	v0,v0,v1
400003ec:	80420000 	lb	v0,0(v0)
400003f0:	00000000 	nop
400003f4:	28420030 	slti	v0,v0,48
400003f8:	14400019 	bnez	v0,40000460 <ascii_hex_to_uint8+0xf0>
400003fc:	00000000 	nop
40000400:	8fa20010 	lw	v0,16(sp)
40000404:	00000000 	nop
40000408:	93a30018 	lbu	v1,24(sp)
4000040c:	00000000 	nop
40000410:	00431021 	addu	v0,v0,v1
40000414:	24030039 	li	v1,57
40000418:	80420000 	lb	v0,0(v0)
4000041c:	00000000 	nop
40000420:	0062102a 	slt	v0,v1,v0
40000424:	1440000e 	bnez	v0,40000460 <ascii_hex_to_uint8+0xf0>
40000428:	00000000 	nop
4000042c:	93a20018 	lbu	v0,24(sp)
40000430:	00000000 	nop
40000434:	8fa30010 	lw	v1,16(sp)
40000438:	00000000 	nop
4000043c:	93a40014 	lbu	a0,20(sp)
40000440:	00000000 	nop
40000444:	00621021 	addu	v0,v1,v0
40000448:	90420000 	lbu	v0,0(v0)
4000044c:	00000000 	nop
40000450:	00041900 	sll	v1,a0,0x4
40000454:	00431021 	addu	v0,v0,v1
40000458:	2442ffd0 	addiu	v0,v0,-48
4000045c:	a3a20014 	sb	v0,20(sp)
40000460:	8fa20010 	lw	v0,16(sp)
40000464:	00000000 	nop
40000468:	93a30018 	lbu	v1,24(sp)
4000046c:	00000000 	nop
40000470:	00431021 	addu	v0,v0,v1
40000474:	80420000 	lb	v0,0(v0)
40000478:	00000000 	nop
4000047c:	28420061 	slti	v0,v0,97
40000480:	14400019 	bnez	v0,400004e8 <ascii_hex_to_uint8+0x178>
40000484:	00000000 	nop
40000488:	8fa20010 	lw	v0,16(sp)
4000048c:	00000000 	nop
40000490:	93a30018 	lbu	v1,24(sp)
40000494:	00000000 	nop
40000498:	00431021 	addu	v0,v0,v1
4000049c:	24030066 	li	v1,102
400004a0:	80420000 	lb	v0,0(v0)
400004a4:	00000000 	nop
400004a8:	0062102a 	slt	v0,v1,v0
400004ac:	1440000e 	bnez	v0,400004e8 <ascii_hex_to_uint8+0x178>
400004b0:	00000000 	nop
400004b4:	93a20018 	lbu	v0,24(sp)
400004b8:	00000000 	nop
400004bc:	8fa30010 	lw	v1,16(sp)
400004c0:	00000000 	nop
400004c4:	93a40014 	lbu	a0,20(sp)
400004c8:	00000000 	nop
400004cc:	00621021 	addu	v0,v1,v0
400004d0:	90420000 	lbu	v0,0(v0)
400004d4:	00000000 	nop
400004d8:	00041900 	sll	v1,a0,0x4
400004dc:	00431021 	addu	v0,v0,v1
400004e0:	2442ffa9 	addiu	v0,v0,-87
400004e4:	a3a20014 	sb	v0,20(sp)
400004e8:	8fa20010 	lw	v0,16(sp)
400004ec:	00000000 	nop
400004f0:	93a30018 	lbu	v1,24(sp)
400004f4:	00000000 	nop
400004f8:	00431021 	addu	v0,v0,v1
400004fc:	80420000 	lb	v0,0(v0)
40000500:	00000000 	nop
40000504:	28420041 	slti	v0,v0,65
40000508:	14400019 	bnez	v0,40000570 <ascii_hex_to_uint8+0x200>
4000050c:	00000000 	nop
40000510:	8fa20010 	lw	v0,16(sp)
40000514:	00000000 	nop
40000518:	93a30018 	lbu	v1,24(sp)
4000051c:	00000000 	nop
40000520:	00431021 	addu	v0,v0,v1
40000524:	24030046 	li	v1,70
40000528:	80420000 	lb	v0,0(v0)
4000052c:	00000000 	nop
40000530:	0062102a 	slt	v0,v1,v0
40000534:	1440000e 	bnez	v0,40000570 <ascii_hex_to_uint8+0x200>
40000538:	00000000 	nop
4000053c:	93a20018 	lbu	v0,24(sp)
40000540:	00000000 	nop
40000544:	8fa30010 	lw	v1,16(sp)
40000548:	00000000 	nop
4000054c:	93a40014 	lbu	a0,20(sp)
40000550:	00000000 	nop
40000554:	00621021 	addu	v0,v1,v0
40000558:	90420000 	lbu	v0,0(v0)
4000055c:	00000000 	nop
40000560:	00041900 	sll	v1,a0,0x4
40000564:	00431021 	addu	v0,v0,v1
40000568:	2442ffc9 	addiu	v0,v0,-55
4000056c:	a3a20014 	sb	v0,20(sp)
40000570:	93a20018 	lbu	v0,24(sp)
40000574:	00000000 	nop
40000578:	24420001 	addiu	v0,v0,1
4000057c:	080000e0 	j	40000380 <ascii_hex_to_uint8+0x10>
40000580:	00000000 	nop
40000584:	93a20014 	lbu	v0,20(sp)
40000588:	00000000 	nop
4000058c:	27bd0020 	addiu	sp,sp,32
40000590:	03e00008 	jr	ra
40000594:	00000000 	nop

40000598 <ascii_hex_to_uint16>:
40000598:	27bdffe0 	addiu	sp,sp,-32
4000059c:	24020000 	li	v0,0
400005a0:	afa40010 	sw	a0,16(sp)
400005a4:	a7a20014 	sh	v0,20(sp)
400005a8:	a7a20018 	sh	v0,24(sp)
400005ac:	97a20018 	lhu	v0,24(sp)
400005b0:	00000000 	nop
400005b4:	2c420004 	sltiu	v0,v0,4
400005b8:	14400004 	bnez	v0,400005cc <ascii_hex_to_uint16+0x34>
400005bc:	00000000 	nop
400005c0:	24020000 	li	v0,0
400005c4:	0800017d 	j	400005f4 <ascii_hex_to_uint16+0x5c>
400005c8:	00000000 	nop
400005cc:	8fa20010 	lw	v0,16(sp)
400005d0:	00000000 	nop
400005d4:	97a30018 	lhu	v1,24(sp)
400005d8:	00000000 	nop
400005dc:	00431021 	addu	v0,v0,v1
400005e0:	80420000 	lb	v0,0(v0)
400005e4:	00000000 	nop
400005e8:	24030000 	li	v1,0
400005ec:	00431026 	xor	v0,v0,v1
400005f0:	0002102b 	sltu	v0,zero,v0
400005f4:	30420001 	andi	v0,v0,0x1
400005f8:	1040006c 	beqz	v0,400007ac <ascii_hex_to_uint16+0x214>
400005fc:	00000000 	nop
40000600:	8fa20010 	lw	v0,16(sp)
40000604:	00000000 	nop
40000608:	97a30018 	lhu	v1,24(sp)
4000060c:	00000000 	nop
40000610:	00431021 	addu	v0,v0,v1
40000614:	80420000 	lb	v0,0(v0)
40000618:	00000000 	nop
4000061c:	28420030 	slti	v0,v0,48
40000620:	14400019 	bnez	v0,40000688 <ascii_hex_to_uint16+0xf0>
40000624:	00000000 	nop
40000628:	8fa20010 	lw	v0,16(sp)
4000062c:	00000000 	nop
40000630:	97a30018 	lhu	v1,24(sp)
40000634:	00000000 	nop
40000638:	00431021 	addu	v0,v0,v1
4000063c:	24030039 	li	v1,57
40000640:	80420000 	lb	v0,0(v0)
40000644:	00000000 	nop
40000648:	0062102a 	slt	v0,v1,v0
4000064c:	1440000e 	bnez	v0,40000688 <ascii_hex_to_uint16+0xf0>
40000650:	00000000 	nop
40000654:	97a20018 	lhu	v0,24(sp)
40000658:	00000000 	nop
4000065c:	8fa30010 	lw	v1,16(sp)
40000660:	00000000 	nop
40000664:	97a40014 	lhu	a0,20(sp)
40000668:	00000000 	nop
4000066c:	00621021 	addu	v0,v1,v0
40000670:	80420000 	lb	v0,0(v0)
40000674:	00000000 	nop
40000678:	00041900 	sll	v1,a0,0x4
4000067c:	00431021 	addu	v0,v0,v1
40000680:	2442ffd0 	addiu	v0,v0,-48
40000684:	a7a20014 	sh	v0,20(sp)
40000688:	8fa20010 	lw	v0,16(sp)
4000068c:	00000000 	nop
40000690:	97a30018 	lhu	v1,24(sp)
40000694:	00000000 	nop
40000698:	00431021 	addu	v0,v0,v1
4000069c:	80420000 	lb	v0,0(v0)
400006a0:	00000000 	nop
400006a4:	28420061 	slti	v0,v0,97
400006a8:	14400019 	bnez	v0,40000710 <ascii_hex_to_uint16+0x178>
400006ac:	00000000 	nop
400006b0:	8fa20010 	lw	v0,16(sp)
400006b4:	00000000 	nop
400006b8:	97a30018 	lhu	v1,24(sp)
400006bc:	00000000 	nop
400006c0:	00431021 	addu	v0,v0,v1
400006c4:	24030066 	li	v1,102
400006c8:	80420000 	lb	v0,0(v0)
400006cc:	00000000 	nop
400006d0:	0062102a 	slt	v0,v1,v0
400006d4:	1440000e 	bnez	v0,40000710 <ascii_hex_to_uint16+0x178>
400006d8:	00000000 	nop
400006dc:	97a20018 	lhu	v0,24(sp)
400006e0:	00000000 	nop
400006e4:	8fa30010 	lw	v1,16(sp)
400006e8:	00000000 	nop
400006ec:	97a40014 	lhu	a0,20(sp)
400006f0:	00000000 	nop
400006f4:	00621021 	addu	v0,v1,v0
400006f8:	80420000 	lb	v0,0(v0)
400006fc:	00000000 	nop
40000700:	00041900 	sll	v1,a0,0x4
40000704:	00431021 	addu	v0,v0,v1
40000708:	2442ffa9 	addiu	v0,v0,-87
4000070c:	a7a20014 	sh	v0,20(sp)
40000710:	8fa20010 	lw	v0,16(sp)
40000714:	00000000 	nop
40000718:	97a30018 	lhu	v1,24(sp)
4000071c:	00000000 	nop
40000720:	00431021 	addu	v0,v0,v1
40000724:	80420000 	lb	v0,0(v0)
40000728:	00000000 	nop
4000072c:	28420041 	slti	v0,v0,65
40000730:	14400019 	bnez	v0,40000798 <ascii_hex_to_uint16+0x200>
40000734:	00000000 	nop
40000738:	8fa20010 	lw	v0,16(sp)
4000073c:	00000000 	nop
40000740:	97a30018 	lhu	v1,24(sp)
40000744:	00000000 	nop
40000748:	00431021 	addu	v0,v0,v1
4000074c:	24030046 	li	v1,70
40000750:	80420000 	lb	v0,0(v0)
40000754:	00000000 	nop
40000758:	0062102a 	slt	v0,v1,v0
4000075c:	1440000e 	bnez	v0,40000798 <ascii_hex_to_uint16+0x200>
40000760:	00000000 	nop
40000764:	97a20018 	lhu	v0,24(sp)
40000768:	00000000 	nop
4000076c:	8fa30010 	lw	v1,16(sp)
40000770:	00000000 	nop
40000774:	97a40014 	lhu	a0,20(sp)
40000778:	00000000 	nop
4000077c:	00621021 	addu	v0,v1,v0
40000780:	80420000 	lb	v0,0(v0)
40000784:	00000000 	nop
40000788:	00041900 	sll	v1,a0,0x4
4000078c:	00431021 	addu	v0,v0,v1
40000790:	2442ffc9 	addiu	v0,v0,-55
40000794:	a7a20014 	sh	v0,20(sp)
40000798:	97a20018 	lhu	v0,24(sp)
4000079c:	00000000 	nop
400007a0:	24420001 	addiu	v0,v0,1
400007a4:	0800016a 	j	400005a8 <ascii_hex_to_uint16+0x10>
400007a8:	00000000 	nop
400007ac:	97a20014 	lhu	v0,20(sp)
400007b0:	00000000 	nop
400007b4:	27bd0020 	addiu	sp,sp,32
400007b8:	03e00008 	jr	ra
400007bc:	00000000 	nop

400007c0 <ascii_hex_to_uint32>:
400007c0:	27bdffe0 	addiu	sp,sp,-32
400007c4:	afa40010 	sw	a0,16(sp)
400007c8:	afa00014 	sw	zero,20(sp)
400007cc:	afa00018 	sw	zero,24(sp)
400007d0:	8fa20018 	lw	v0,24(sp)
400007d4:	00000000 	nop
400007d8:	2c420008 	sltiu	v0,v0,8
400007dc:	14400004 	bnez	v0,400007f0 <ascii_hex_to_uint32+0x30>
400007e0:	00000000 	nop
400007e4:	24020000 	li	v0,0
400007e8:	08000206 	j	40000818 <ascii_hex_to_uint32+0x58>
400007ec:	00000000 	nop
400007f0:	8fa20010 	lw	v0,16(sp)
400007f4:	00000000 	nop
400007f8:	8fa30018 	lw	v1,24(sp)
400007fc:	00000000 	nop
40000800:	00431021 	addu	v0,v0,v1
40000804:	80420000 	lb	v0,0(v0)
40000808:	00000000 	nop
4000080c:	24030000 	li	v1,0
40000810:	00431026 	xor	v0,v0,v1
40000814:	0002102b 	sltu	v0,zero,v0
40000818:	30420001 	andi	v0,v0,0x1
4000081c:	1040006d 	beqz	v0,400009d4 <ascii_hex_to_uint32+0x214>
40000820:	00000000 	nop
40000824:	8fa20010 	lw	v0,16(sp)
40000828:	00000000 	nop
4000082c:	8fa30018 	lw	v1,24(sp)
40000830:	00000000 	nop
40000834:	00431021 	addu	v0,v0,v1
40000838:	80420000 	lb	v0,0(v0)
4000083c:	00000000 	nop
40000840:	28420030 	slti	v0,v0,48
40000844:	14400019 	bnez	v0,400008ac <ascii_hex_to_uint32+0xec>
40000848:	00000000 	nop
4000084c:	8fa20010 	lw	v0,16(sp)
40000850:	00000000 	nop
40000854:	8fa30018 	lw	v1,24(sp)
40000858:	00000000 	nop
4000085c:	00431021 	addu	v0,v0,v1
40000860:	24030039 	li	v1,57
40000864:	80420000 	lb	v0,0(v0)
40000868:	00000000 	nop
4000086c:	0062102a 	slt	v0,v1,v0
40000870:	1440000e 	bnez	v0,400008ac <ascii_hex_to_uint32+0xec>
40000874:	00000000 	nop
40000878:	8fa20018 	lw	v0,24(sp)
4000087c:	00000000 	nop
40000880:	8fa30010 	lw	v1,16(sp)
40000884:	00000000 	nop
40000888:	8fa40014 	lw	a0,20(sp)
4000088c:	00000000 	nop
40000890:	00621021 	addu	v0,v1,v0
40000894:	80420000 	lb	v0,0(v0)
40000898:	00000000 	nop
4000089c:	00041900 	sll	v1,a0,0x4
400008a0:	00431021 	addu	v0,v0,v1
400008a4:	2442ffd0 	addiu	v0,v0,-48
400008a8:	afa20014 	sw	v0,20(sp)
400008ac:	8fa20010 	lw	v0,16(sp)
400008b0:	00000000 	nop
400008b4:	8fa30018 	lw	v1,24(sp)
400008b8:	00000000 	nop
400008bc:	00431021 	addu	v0,v0,v1
400008c0:	80420000 	lb	v0,0(v0)
400008c4:	00000000 	nop
400008c8:	28420061 	slti	v0,v0,97
400008cc:	14400019 	bnez	v0,40000934 <ascii_hex_to_uint32+0x174>
400008d0:	00000000 	nop
400008d4:	8fa20010 	lw	v0,16(sp)
400008d8:	00000000 	nop
400008dc:	8fa30018 	lw	v1,24(sp)
400008e0:	00000000 	nop
400008e4:	00431021 	addu	v0,v0,v1
400008e8:	24030066 	li	v1,102
400008ec:	80420000 	lb	v0,0(v0)
400008f0:	00000000 	nop
400008f4:	0062102a 	slt	v0,v1,v0
400008f8:	1440000e 	bnez	v0,40000934 <ascii_hex_to_uint32+0x174>
400008fc:	00000000 	nop
40000900:	8fa20018 	lw	v0,24(sp)
40000904:	00000000 	nop
40000908:	8fa30010 	lw	v1,16(sp)
4000090c:	00000000 	nop
40000910:	8fa40014 	lw	a0,20(sp)
40000914:	00000000 	nop
40000918:	00621021 	addu	v0,v1,v0
4000091c:	80420000 	lb	v0,0(v0)
40000920:	00000000 	nop
40000924:	00041900 	sll	v1,a0,0x4
40000928:	00431021 	addu	v0,v0,v1
4000092c:	2442ffa9 	addiu	v0,v0,-87
40000930:	afa20014 	sw	v0,20(sp)
40000934:	8fa20010 	lw	v0,16(sp)
40000938:	00000000 	nop
4000093c:	8fa30018 	lw	v1,24(sp)
40000940:	00000000 	nop
40000944:	00431021 	addu	v0,v0,v1
40000948:	80420000 	lb	v0,0(v0)
4000094c:	00000000 	nop
40000950:	28420041 	slti	v0,v0,65
40000954:	14400019 	bnez	v0,400009bc <ascii_hex_to_uint32+0x1fc>
40000958:	00000000 	nop
4000095c:	8fa20010 	lw	v0,16(sp)
40000960:	00000000 	nop
40000964:	8fa30018 	lw	v1,24(sp)
40000968:	00000000 	nop
4000096c:	00431021 	addu	v0,v0,v1
40000970:	24030046 	li	v1,70
40000974:	80420000 	lb	v0,0(v0)
40000978:	00000000 	nop
4000097c:	0062102a 	slt	v0,v1,v0
40000980:	1440000e 	bnez	v0,400009bc <ascii_hex_to_uint32+0x1fc>
40000984:	00000000 	nop
40000988:	8fa20018 	lw	v0,24(sp)
4000098c:	00000000 	nop
40000990:	8fa30010 	lw	v1,16(sp)
40000994:	00000000 	nop
40000998:	8fa40014 	lw	a0,20(sp)
4000099c:	00000000 	nop
400009a0:	00621021 	addu	v0,v1,v0
400009a4:	80420000 	lb	v0,0(v0)
400009a8:	00000000 	nop
400009ac:	00041900 	sll	v1,a0,0x4
400009b0:	00431021 	addu	v0,v0,v1
400009b4:	2442ffc9 	addiu	v0,v0,-55
400009b8:	afa20014 	sw	v0,20(sp)
400009bc:	8fa20018 	lw	v0,24(sp)
400009c0:	00000000 	nop
400009c4:	24420001 	addiu	v0,v0,1
400009c8:	afa20018 	sw	v0,24(sp)
400009cc:	080001f4 	j	400007d0 <ascii_hex_to_uint32+0x10>
400009d0:	00000000 	nop
400009d4:	8fa20014 	lw	v0,20(sp)
400009d8:	00000000 	nop
400009dc:	27bd0020 	addiu	sp,sp,32
400009e0:	03e00008 	jr	ra
400009e4:	00000000 	nop

400009e8 <uint8_to_ascii_hex>:
400009e8:	27bdffd8 	addiu	sp,sp,-40
400009ec:	a3a40010 	sb	a0,16(sp)
400009f0:	afa50014 	sw	a1,20(sp)
400009f4:	afa60018 	sw	a2,24(sp)
400009f8:	24020002 	li	v0,2
400009fc:	afa0001c 	sw	zero,28(sp)
40000a00:	afa20020 	sw	v0,32(sp)
40000a04:	8fa2001c 	lw	v0,28(sp)
40000a08:	00000000 	nop
40000a0c:	8fa30020 	lw	v1,32(sp)
40000a10:	00000000 	nop
40000a14:	0043102b 	sltu	v0,v0,v1
40000a18:	14400004 	bnez	v0,40000a2c <uint8_to_ascii_hex+0x44>
40000a1c:	00000000 	nop
40000a20:	24020000 	li	v0,0
40000a24:	08000291 	j	40000a44 <uint8_to_ascii_hex+0x5c>
40000a28:	00000000 	nop
40000a2c:	8fa2001c 	lw	v0,28(sp)
40000a30:	00000000 	nop
40000a34:	24420001 	addiu	v0,v0,1
40000a38:	8fa30018 	lw	v1,24(sp)
40000a3c:	00000000 	nop
40000a40:	0043102b 	sltu	v0,v0,v1
40000a44:	30420001 	andi	v0,v0,0x1
40000a48:	1040003a 	beqz	v0,40000b34 <uint8_to_ascii_hex+0x14c>
40000a4c:	00000000 	nop
40000a50:	8fa20020 	lw	v0,32(sp)
40000a54:	00000000 	nop
40000a58:	2442ffff 	addiu	v0,v0,-1
40000a5c:	8fa3001c 	lw	v1,28(sp)
40000a60:	00000000 	nop
40000a64:	00431023 	subu	v0,v0,v1
40000a68:	93a30010 	lbu	v1,16(sp)
40000a6c:	00000000 	nop
40000a70:	00021080 	sll	v0,v0,0x2
40000a74:	00431006 	srlv	v0,v1,v0
40000a78:	3042000f 	andi	v0,v0,0xf
40000a7c:	a3a20024 	sb	v0,36(sp)
40000a80:	83a20024 	lb	v0,36(sp)
40000a84:	00000000 	nop
40000a88:	04400010 	bltz	v0,40000acc <uint8_to_ascii_hex+0xe4>
40000a8c:	00000000 	nop
40000a90:	24020009 	li	v0,9
40000a94:	83a30024 	lb	v1,36(sp)
40000a98:	00000000 	nop
40000a9c:	0043102a 	slt	v0,v0,v1
40000aa0:	1440000a 	bnez	v0,40000acc <uint8_to_ascii_hex+0xe4>
40000aa4:	00000000 	nop
40000aa8:	93a20024 	lbu	v0,36(sp)
40000aac:	00000000 	nop
40000ab0:	8fa3001c 	lw	v1,28(sp)
40000ab4:	00000000 	nop
40000ab8:	8fa40014 	lw	a0,20(sp)
40000abc:	00000000 	nop
40000ac0:	24420030 	addiu	v0,v0,48
40000ac4:	00831821 	addu	v1,a0,v1
40000ac8:	a0620000 	sb	v0,0(v1)
40000acc:	83a20024 	lb	v0,36(sp)
40000ad0:	00000000 	nop
40000ad4:	2842000a 	slti	v0,v0,10
40000ad8:	14400010 	bnez	v0,40000b1c <uint8_to_ascii_hex+0x134>
40000adc:	00000000 	nop
40000ae0:	2402000f 	li	v0,15
40000ae4:	83a30024 	lb	v1,36(sp)
40000ae8:	00000000 	nop
40000aec:	0043102a 	slt	v0,v0,v1
40000af0:	1440000a 	bnez	v0,40000b1c <uint8_to_ascii_hex+0x134>
40000af4:	00000000 	nop
40000af8:	93a20024 	lbu	v0,36(sp)
40000afc:	00000000 	nop
40000b00:	8fa3001c 	lw	v1,28(sp)
40000b04:	00000000 	nop
40000b08:	8fa40014 	lw	a0,20(sp)
40000b0c:	00000000 	nop
40000b10:	24420057 	addiu	v0,v0,87
40000b14:	00831821 	addu	v1,a0,v1
40000b18:	a0620000 	sb	v0,0(v1)
40000b1c:	8fa2001c 	lw	v0,28(sp)
40000b20:	00000000 	nop
40000b24:	24420001 	addiu	v0,v0,1
40000b28:	afa2001c 	sw	v0,28(sp)
40000b2c:	08000281 	j	40000a04 <uint8_to_ascii_hex+0x1c>
40000b30:	00000000 	nop
40000b34:	8fa2001c 	lw	v0,28(sp)
40000b38:	00000000 	nop
40000b3c:	8fa30014 	lw	v1,20(sp)
40000b40:	00000000 	nop
40000b44:	24040000 	li	a0,0
40000b48:	00621021 	addu	v0,v1,v0
40000b4c:	a0440000 	sb	a0,0(v0)
40000b50:	8fa20014 	lw	v0,20(sp)
40000b54:	00000000 	nop
40000b58:	27bd0028 	addiu	sp,sp,40
40000b5c:	03e00008 	jr	ra
40000b60:	00000000 	nop

40000b64 <uint16_to_ascii_hex>:
40000b64:	27bdffd8 	addiu	sp,sp,-40
40000b68:	a7a40010 	sh	a0,16(sp)
40000b6c:	afa50014 	sw	a1,20(sp)
40000b70:	afa60018 	sw	a2,24(sp)
40000b74:	24020004 	li	v0,4
40000b78:	afa0001c 	sw	zero,28(sp)
40000b7c:	afa20020 	sw	v0,32(sp)
40000b80:	8fa2001c 	lw	v0,28(sp)
40000b84:	00000000 	nop
40000b88:	8fa30020 	lw	v1,32(sp)
40000b8c:	00000000 	nop
40000b90:	0043102b 	sltu	v0,v0,v1
40000b94:	14400004 	bnez	v0,40000ba8 <uint16_to_ascii_hex+0x44>
40000b98:	00000000 	nop
40000b9c:	24020000 	li	v0,0
40000ba0:	080002f0 	j	40000bc0 <uint16_to_ascii_hex+0x5c>
40000ba4:	00000000 	nop
40000ba8:	8fa2001c 	lw	v0,28(sp)
40000bac:	00000000 	nop
40000bb0:	24420001 	addiu	v0,v0,1
40000bb4:	8fa30018 	lw	v1,24(sp)
40000bb8:	00000000 	nop
40000bbc:	0043102b 	sltu	v0,v0,v1
40000bc0:	30420001 	andi	v0,v0,0x1
40000bc4:	1040003a 	beqz	v0,40000cb0 <uint16_to_ascii_hex+0x14c>
40000bc8:	00000000 	nop
40000bcc:	8fa20020 	lw	v0,32(sp)
40000bd0:	00000000 	nop
40000bd4:	2442ffff 	addiu	v0,v0,-1
40000bd8:	8fa3001c 	lw	v1,28(sp)
40000bdc:	00000000 	nop
40000be0:	00431023 	subu	v0,v0,v1
40000be4:	97a30010 	lhu	v1,16(sp)
40000be8:	00000000 	nop
40000bec:	00021080 	sll	v0,v0,0x2
40000bf0:	00431006 	srlv	v0,v1,v0
40000bf4:	3042000f 	andi	v0,v0,0xf
40000bf8:	a3a20024 	sb	v0,36(sp)
40000bfc:	83a20024 	lb	v0,36(sp)
40000c00:	00000000 	nop
40000c04:	04400010 	bltz	v0,40000c48 <uint16_to_ascii_hex+0xe4>
40000c08:	00000000 	nop
40000c0c:	24020009 	li	v0,9
40000c10:	83a30024 	lb	v1,36(sp)
40000c14:	00000000 	nop
40000c18:	0043102a 	slt	v0,v0,v1
40000c1c:	1440000a 	bnez	v0,40000c48 <uint16_to_ascii_hex+0xe4>
40000c20:	00000000 	nop
40000c24:	93a20024 	lbu	v0,36(sp)
40000c28:	00000000 	nop
40000c2c:	8fa3001c 	lw	v1,28(sp)
40000c30:	00000000 	nop
40000c34:	8fa40014 	lw	a0,20(sp)
40000c38:	00000000 	nop
40000c3c:	24420030 	addiu	v0,v0,48
40000c40:	00831821 	addu	v1,a0,v1
40000c44:	a0620000 	sb	v0,0(v1)
40000c48:	83a20024 	lb	v0,36(sp)
40000c4c:	00000000 	nop
40000c50:	2842000a 	slti	v0,v0,10
40000c54:	14400010 	bnez	v0,40000c98 <uint16_to_ascii_hex+0x134>
40000c58:	00000000 	nop
40000c5c:	2402000f 	li	v0,15
40000c60:	83a30024 	lb	v1,36(sp)
40000c64:	00000000 	nop
40000c68:	0043102a 	slt	v0,v0,v1
40000c6c:	1440000a 	bnez	v0,40000c98 <uint16_to_ascii_hex+0x134>
40000c70:	00000000 	nop
40000c74:	93a20024 	lbu	v0,36(sp)
40000c78:	00000000 	nop
40000c7c:	8fa3001c 	lw	v1,28(sp)
40000c80:	00000000 	nop
40000c84:	8fa40014 	lw	a0,20(sp)
40000c88:	00000000 	nop
40000c8c:	24420057 	addiu	v0,v0,87
40000c90:	00831821 	addu	v1,a0,v1
40000c94:	a0620000 	sb	v0,0(v1)
40000c98:	8fa2001c 	lw	v0,28(sp)
40000c9c:	00000000 	nop
40000ca0:	24420001 	addiu	v0,v0,1
40000ca4:	afa2001c 	sw	v0,28(sp)
40000ca8:	080002e0 	j	40000b80 <uint16_to_ascii_hex+0x1c>
40000cac:	00000000 	nop
40000cb0:	8fa2001c 	lw	v0,28(sp)
40000cb4:	00000000 	nop
40000cb8:	8fa30014 	lw	v1,20(sp)
40000cbc:	00000000 	nop
40000cc0:	24040000 	li	a0,0
40000cc4:	00621021 	addu	v0,v1,v0
40000cc8:	a0440000 	sb	a0,0(v0)
40000ccc:	8fa20014 	lw	v0,20(sp)
40000cd0:	00000000 	nop
40000cd4:	27bd0028 	addiu	sp,sp,40
40000cd8:	03e00008 	jr	ra
40000cdc:	00000000 	nop

40000ce0 <uint32_to_ascii_hex>:
40000ce0:	27bdffd8 	addiu	sp,sp,-40
40000ce4:	afa40010 	sw	a0,16(sp)
40000ce8:	afa50014 	sw	a1,20(sp)
40000cec:	afa60018 	sw	a2,24(sp)
40000cf0:	24020008 	li	v0,8
40000cf4:	afa0001c 	sw	zero,28(sp)
40000cf8:	afa20020 	sw	v0,32(sp)
40000cfc:	8fa2001c 	lw	v0,28(sp)
40000d00:	00000000 	nop
40000d04:	8fa30020 	lw	v1,32(sp)
40000d08:	00000000 	nop
40000d0c:	0043102b 	sltu	v0,v0,v1
40000d10:	14400004 	bnez	v0,40000d24 <uint32_to_ascii_hex+0x44>
40000d14:	00000000 	nop
40000d18:	24020000 	li	v0,0
40000d1c:	0800034f 	j	40000d3c <uint32_to_ascii_hex+0x5c>
40000d20:	00000000 	nop
40000d24:	8fa2001c 	lw	v0,28(sp)
40000d28:	00000000 	nop
40000d2c:	24420001 	addiu	v0,v0,1
40000d30:	8fa30018 	lw	v1,24(sp)
40000d34:	00000000 	nop
40000d38:	0043102b 	sltu	v0,v0,v1
40000d3c:	30420001 	andi	v0,v0,0x1
40000d40:	1040003a 	beqz	v0,40000e2c <uint32_to_ascii_hex+0x14c>
40000d44:	00000000 	nop
40000d48:	8fa20020 	lw	v0,32(sp)
40000d4c:	00000000 	nop
40000d50:	2442ffff 	addiu	v0,v0,-1
40000d54:	8fa3001c 	lw	v1,28(sp)
40000d58:	00000000 	nop
40000d5c:	00431023 	subu	v0,v0,v1
40000d60:	8fa30010 	lw	v1,16(sp)
40000d64:	00000000 	nop
40000d68:	00021080 	sll	v0,v0,0x2
40000d6c:	00431006 	srlv	v0,v1,v0
40000d70:	3042000f 	andi	v0,v0,0xf
40000d74:	a3a20024 	sb	v0,36(sp)
40000d78:	83a20024 	lb	v0,36(sp)
40000d7c:	00000000 	nop
40000d80:	04400010 	bltz	v0,40000dc4 <uint32_to_ascii_hex+0xe4>
40000d84:	00000000 	nop
40000d88:	24020009 	li	v0,9
40000d8c:	83a30024 	lb	v1,36(sp)
40000d90:	00000000 	nop
40000d94:	0043102a 	slt	v0,v0,v1
40000d98:	1440000a 	bnez	v0,40000dc4 <uint32_to_ascii_hex+0xe4>
40000d9c:	00000000 	nop
40000da0:	93a20024 	lbu	v0,36(sp)
40000da4:	00000000 	nop
40000da8:	8fa3001c 	lw	v1,28(sp)
40000dac:	00000000 	nop
40000db0:	8fa40014 	lw	a0,20(sp)
40000db4:	00000000 	nop
40000db8:	24420030 	addiu	v0,v0,48
40000dbc:	00831821 	addu	v1,a0,v1
40000dc0:	a0620000 	sb	v0,0(v1)
40000dc4:	83a20024 	lb	v0,36(sp)
40000dc8:	00000000 	nop
40000dcc:	2842000a 	slti	v0,v0,10
40000dd0:	14400010 	bnez	v0,40000e14 <uint32_to_ascii_hex+0x134>
40000dd4:	00000000 	nop
40000dd8:	2402000f 	li	v0,15
40000ddc:	83a30024 	lb	v1,36(sp)
40000de0:	00000000 	nop
40000de4:	0043102a 	slt	v0,v0,v1
40000de8:	1440000a 	bnez	v0,40000e14 <uint32_to_ascii_hex+0x134>
40000dec:	00000000 	nop
40000df0:	93a20024 	lbu	v0,36(sp)
40000df4:	00000000 	nop
40000df8:	8fa3001c 	lw	v1,28(sp)
40000dfc:	00000000 	nop
40000e00:	8fa40014 	lw	a0,20(sp)
40000e04:	00000000 	nop
40000e08:	24420057 	addiu	v0,v0,87
40000e0c:	00831821 	addu	v1,a0,v1
40000e10:	a0620000 	sb	v0,0(v1)
40000e14:	8fa2001c 	lw	v0,28(sp)
40000e18:	00000000 	nop
40000e1c:	24420001 	addiu	v0,v0,1
40000e20:	afa2001c 	sw	v0,28(sp)
40000e24:	0800033f 	j	40000cfc <uint32_to_ascii_hex+0x1c>
40000e28:	00000000 	nop
40000e2c:	8fa2001c 	lw	v0,28(sp)
40000e30:	00000000 	nop
40000e34:	8fa30014 	lw	v1,20(sp)
40000e38:	00000000 	nop
40000e3c:	24040000 	li	a0,0
40000e40:	00621021 	addu	v0,v1,v0
40000e44:	a0440000 	sb	a0,0(v0)
40000e48:	8fa20014 	lw	v0,20(sp)
40000e4c:	00000000 	nop
40000e50:	27bd0028 	addiu	sp,sp,40
40000e54:	03e00008 	jr	ra
40000e58:	00000000 	nop

40000e5c <read_n>:
40000e5c:	27bdffc8 	addiu	sp,sp,-56
40000e60:	afbf0034 	sw	ra,52(sp)
40000e64:	afa40020 	sw	a0,32(sp)
40000e68:	afa50024 	sw	a1,36(sp)
40000e6c:	afa00028 	sw	zero,40(sp)
40000e70:	8fa20028 	lw	v0,40(sp)
40000e74:	00000000 	nop
40000e78:	8fa30024 	lw	v1,36(sp)
40000e7c:	00000000 	nop
40000e80:	0043102b 	sltu	v0,v0,v1
40000e84:	1040000f 	beqz	v0,40000ec4 <read_n+0x68>
40000e88:	00000000 	nop
40000e8c:	0c000634 	jal	400018d0 <uread_int8>
40000e90:	00000000 	nop
40000e94:	8fa30028 	lw	v1,40(sp)
40000e98:	00000000 	nop
40000e9c:	8fa40020 	lw	a0,32(sp)
40000ea0:	00000000 	nop
40000ea4:	00831821 	addu	v1,a0,v1
40000ea8:	a0620000 	sb	v0,0(v1)
40000eac:	8fa20028 	lw	v0,40(sp)
40000eb0:	00000000 	nop
40000eb4:	24420001 	addiu	v0,v0,1
40000eb8:	afa20028 	sw	v0,40(sp)
40000ebc:	0800039c 	j	40000e70 <read_n+0x14>
40000ec0:	00000000 	nop
40000ec4:	8fa20024 	lw	v0,36(sp)
40000ec8:	00000000 	nop
40000ecc:	8fa30020 	lw	v1,32(sp)
40000ed0:	00000000 	nop
40000ed4:	24040000 	li	a0,0
40000ed8:	00621021 	addu	v0,v1,v0
40000edc:	a0440000 	sb	a0,0(v0)
40000ee0:	8fa20020 	lw	v0,32(sp)
40000ee4:	00000000 	nop
40000ee8:	8fbf0034 	lw	ra,52(sp)
40000eec:	00000000 	nop
40000ef0:	27bd0038 	addiu	sp,sp,56
40000ef4:	03e00008 	jr	ra
40000ef8:	00000000 	nop

40000efc <read_token>:
40000efc:	27bdffb8 	addiu	sp,sp,-72
40000f00:	afbf0044 	sw	ra,68(sp)
40000f04:	afa40024 	sw	a0,36(sp)
40000f08:	afa50028 	sw	a1,40(sp)
40000f0c:	afa6002c 	sw	a2,44(sp)
40000f10:	afa00030 	sw	zero,48(sp)
40000f14:	8fa20030 	lw	v0,48(sp)
40000f18:	00000000 	nop
40000f1c:	8fa30028 	lw	v1,40(sp)
40000f20:	00000000 	nop
40000f24:	0043102b 	sltu	v0,v0,v1
40000f28:	10400036 	beqz	v0,40001004 <read_token+0x108>
40000f2c:	00000000 	nop
40000f30:	0c000634 	jal	400018d0 <uread_int8>
40000f34:	00000000 	nop
40000f38:	a3a20034 	sb	v0,52(sp)
40000f3c:	afa00038 	sw	zero,56(sp)
40000f40:	8fa2002c 	lw	v0,44(sp)
40000f44:	00000000 	nop
40000f48:	8fa30038 	lw	v1,56(sp)
40000f4c:	00000000 	nop
40000f50:	00431021 	addu	v0,v0,v1
40000f54:	80420000 	lb	v0,0(v0)
40000f58:	00000000 	nop
40000f5c:	1040001b 	beqz	v0,40000fcc <read_token+0xd0>
40000f60:	00000000 	nop
40000f64:	8fa2002c 	lw	v0,44(sp)
40000f68:	00000000 	nop
40000f6c:	8fa30038 	lw	v1,56(sp)
40000f70:	00000000 	nop
40000f74:	00431021 	addu	v0,v0,v1
40000f78:	83a30034 	lb	v1,52(sp)
40000f7c:	00000000 	nop
40000f80:	80420000 	lb	v0,0(v0)
40000f84:	00000000 	nop
40000f88:	1462000a 	bne	v1,v0,40000fb4 <read_token+0xb8>
40000f8c:	00000000 	nop
40000f90:	8fa20030 	lw	v0,48(sp)
40000f94:	00000000 	nop
40000f98:	8fa30024 	lw	v1,36(sp)
40000f9c:	00000000 	nop
40000fa0:	24040000 	li	a0,0
40000fa4:	00621021 	addu	v0,v1,v0
40000fa8:	a0440000 	sb	a0,0(v0)
40000fac:	08000408 	j	40001020 <read_token+0x124>
40000fb0:	00000000 	nop
40000fb4:	8fa20038 	lw	v0,56(sp)
40000fb8:	00000000 	nop
40000fbc:	24420001 	addiu	v0,v0,1
40000fc0:	afa20038 	sw	v0,56(sp)
40000fc4:	080003d0 	j	40000f40 <read_token+0x44>
40000fc8:	00000000 	nop
40000fcc:	93a20034 	lbu	v0,52(sp)
40000fd0:	00000000 	nop
40000fd4:	8fa30030 	lw	v1,48(sp)
40000fd8:	00000000 	nop
40000fdc:	8fa40024 	lw	a0,36(sp)
40000fe0:	00000000 	nop
40000fe4:	00831821 	addu	v1,a0,v1
40000fe8:	a0620000 	sb	v0,0(v1)
40000fec:	8fa20030 	lw	v0,48(sp)
40000ff0:	00000000 	nop
40000ff4:	24420001 	addiu	v0,v0,1
40000ff8:	afa20030 	sw	v0,48(sp)
40000ffc:	080003c5 	j	40000f14 <read_token+0x18>
40001000:	00000000 	nop
40001004:	8fa20028 	lw	v0,40(sp)
40001008:	00000000 	nop
4000100c:	8fa30024 	lw	v1,36(sp)
40001010:	00000000 	nop
40001014:	24040000 	li	a0,0
40001018:	00431021 	addu	v0,v0,v1
4000101c:	a044ffff 	sb	a0,-1(v0)
40001020:	8fa20024 	lw	v0,36(sp)
40001024:	00000000 	nop
40001028:	afa20020 	sw	v0,32(sp)
4000102c:	8fa20020 	lw	v0,32(sp)
40001030:	00000000 	nop
40001034:	8fbf0044 	lw	ra,68(sp)
40001038:	00000000 	nop
4000103c:	27bd0048 	addiu	sp,sp,72
40001040:	03e00008 	jr	ra
40001044:	00000000 	nop

40001048 <store>:
40001048:	27bdffb8 	addiu	sp,sp,-72
4000104c:	afbf0044 	sw	ra,68(sp)
40001050:	afa40020 	sw	a0,32(sp)
40001054:	afa50024 	sw	a1,36(sp)
40001058:	afa00028 	sw	zero,40(sp)
4000105c:	8fa20028 	lw	v0,40(sp)
40001060:	00000000 	nop
40001064:	00021080 	sll	v0,v0,0x2
40001068:	8fa30024 	lw	v1,36(sp)
4000106c:	00000000 	nop
40001070:	0043102b 	sltu	v0,v0,v1
40001074:	1040001a 	beqz	v0,400010e0 <store+0x98>
40001078:	00000000 	nop
4000107c:	27a4002c 	addiu	a0,sp,44
40001080:	24050008 	li	a1,8
40001084:	0c000397 	jal	40000e5c <read_n>
40001088:	00000000 	nop
4000108c:	afa20038 	sw	v0,56(sp)
40001090:	8fa20028 	lw	v0,40(sp)
40001094:	00000000 	nop
40001098:	8fa30020 	lw	v1,32(sp)
4000109c:	00000000 	nop
400010a0:	00021080 	sll	v0,v0,0x2
400010a4:	00621021 	addu	v0,v1,v0
400010a8:	afa2003c 	sw	v0,60(sp)
400010ac:	8fa40038 	lw	a0,56(sp)
400010b0:	00000000 	nop
400010b4:	0c0001f0 	jal	400007c0 <ascii_hex_to_uint32>
400010b8:	00000000 	nop
400010bc:	8fa3003c 	lw	v1,60(sp)
400010c0:	00000000 	nop
400010c4:	ac620000 	sw	v0,0(v1)
400010c8:	8fa20028 	lw	v0,40(sp)
400010cc:	00000000 	nop
400010d0:	24420001 	addiu	v0,v0,1
400010d4:	afa20028 	sw	v0,40(sp)
400010d8:	08000417 	j	4000105c <store+0x14>
400010dc:	00000000 	nop
400010e0:	8fbf0044 	lw	ra,68(sp)
400010e4:	00000000 	nop
400010e8:	27bd0048 	addiu	sp,sp,72
400010ec:	03e00008 	jr	ra
400010f0:	00000000 	nop

400010f4 <main>:
400010f4:	27bdfef0 	addiu	sp,sp,-272
400010f8:	afbf0108 	sw	ra,264(sp)
400010fc:	afb000f8 	sw	s0,248(sp)
40001100:	afb100fc 	sw	s1,252(sp)
40001104:	afb20100 	sw	s2,256(sp)
40001108:	afa00020 	sw	zero,32(sp)
4000110c:	3c024000 	lui	v0,0x4000
40001110:	24441960 	addiu	a0,v0,6496
40001114:	0c000613 	jal	4000184c <uwrite_int8s>
40001118:	00000000 	nop
4000111c:	3c024000 	lui	v0,0x4000
40001120:	2444196c 	addiu	a0,v0,6508
40001124:	0c000613 	jal	4000184c <uwrite_int8s>
40001128:	00000000 	nop
4000112c:	3c024000 	lui	v0,0x4000
40001130:	27a40024 	addiu	a0,sp,36
40001134:	24050080 	li	a1,128
40001138:	24461970 	addiu	a2,v0,6512
4000113c:	0c0003bf 	jal	40000efc <read_token>
40001140:	00000000 	nop
40001144:	afa200a4 	sw	v0,164(sp)
40001148:	3c034000 	lui	v1,0x4000
4000114c:	24651974 	addiu	a1,v1,6516
40001150:	00022021 	addu	a0,zero,v0
40001154:	0c0005c0 	jal	40001700 <strcmp>
40001158:	00000000 	nop
4000115c:	1440001e 	bnez	v0,400011d8 <main+0xe4>
40001160:	00000000 	nop
40001164:	3c024000 	lui	v0,0x4000
40001168:	27b00024 	addiu	s0,sp,36
4000116c:	24110080 	li	s1,128
40001170:	24521970 	addiu	s2,v0,6512
40001174:	00102021 	addu	a0,zero,s0
40001178:	00112821 	addu	a1,zero,s1
4000117c:	00123021 	addu	a2,zero,s2
40001180:	0c0003bf 	jal	40000efc <read_token>
40001184:	00000000 	nop
40001188:	00022021 	addu	a0,zero,v0
4000118c:	0c0001f0 	jal	400007c0 <ascii_hex_to_uint32>
40001190:	00000000 	nop
40001194:	afa200a8 	sw	v0,168(sp)
40001198:	00102021 	addu	a0,zero,s0
4000119c:	00112821 	addu	a1,zero,s1
400011a0:	00123021 	addu	a2,zero,s2
400011a4:	0c0003bf 	jal	40000efc <read_token>
400011a8:	00000000 	nop
400011ac:	00022021 	addu	a0,zero,v0
400011b0:	0c000094 	jal	40000250 <ascii_dec_to_uint32>
400011b4:	00000000 	nop
400011b8:	afa200ac 	sw	v0,172(sp)
400011bc:	8fa400a8 	lw	a0,168(sp)
400011c0:	00000000 	nop
400011c4:	00022821 	addu	a1,zero,v0
400011c8:	0c000412 	jal	40001048 <store>
400011cc:	00000000 	nop
400011d0:	08000447 	j	4000111c <main+0x28>
400011d4:	00000000 	nop
400011d8:	8fa400a4 	lw	a0,164(sp)
400011dc:	00000000 	nop
400011e0:	3c024000 	lui	v0,0x4000
400011e4:	2445197c 	addiu	a1,v0,6524
400011e8:	0c0005c0 	jal	40001700 <strcmp>
400011ec:	00000000 	nop
400011f0:	14400010 	bnez	v0,40001234 <main+0x140>
400011f4:	00000000 	nop
400011f8:	3c024000 	lui	v0,0x4000
400011fc:	27a40024 	addiu	a0,sp,36
40001200:	24050080 	li	a1,128
40001204:	24461970 	addiu	a2,v0,6512
40001208:	0c0003bf 	jal	40000efc <read_token>
4000120c:	00000000 	nop
40001210:	00022021 	addu	a0,zero,v0
40001214:	0c0001f0 	jal	400007c0 <ascii_hex_to_uint32>
40001218:	00000000 	nop
4000121c:	afa200b0 	sw	v0,176(sp)
40001220:	afa200b4 	sw	v0,180(sp)
40001224:	0040f809 	jalr	v0
40001228:	00000000 	nop
4000122c:	08000447 	j	4000111c <main+0x28>
40001230:	00000000 	nop
40001234:	8fa400a4 	lw	a0,164(sp)
40001238:	00000000 	nop
4000123c:	3c024000 	lui	v0,0x4000
40001240:	24451980 	addiu	a1,v0,6528
40001244:	0c0005c0 	jal	40001700 <strcmp>
40001248:	00000000 	nop
4000124c:	1440002a 	bnez	v0,400012f8 <main+0x204>
40001250:	00000000 	nop
40001254:	3c024000 	lui	v0,0x4000
40001258:	24461970 	addiu	a2,v0,6512
4000125c:	27b00024 	addiu	s0,sp,36
40001260:	24110080 	li	s1,128
40001264:	00102021 	addu	a0,zero,s0
40001268:	00112821 	addu	a1,zero,s1
4000126c:	0c0003bf 	jal	40000efc <read_token>
40001270:	00000000 	nop
40001274:	00022021 	addu	a0,zero,v0
40001278:	0c0001f0 	jal	400007c0 <ascii_hex_to_uint32>
4000127c:	00000000 	nop
40001280:	afa200b8 	sw	v0,184(sp)
40001284:	afa200bc 	sw	v0,188(sp)
40001288:	8fa400b8 	lw	a0,184(sp)
4000128c:	00000000 	nop
40001290:	00102821 	addu	a1,zero,s0
40001294:	00113021 	addu	a2,zero,s1
40001298:	0c000338 	jal	40000ce0 <uint32_to_ascii_hex>
4000129c:	00000000 	nop
400012a0:	00022021 	addu	a0,zero,v0
400012a4:	0c000613 	jal	4000184c <uwrite_int8s>
400012a8:	00000000 	nop
400012ac:	3c024000 	lui	v0,0x4000
400012b0:	24441984 	addiu	a0,v0,6532
400012b4:	0c000613 	jal	4000184c <uwrite_int8s>
400012b8:	00000000 	nop
400012bc:	8fa200bc 	lw	v0,188(sp)
400012c0:	00000000 	nop
400012c4:	8c440000 	lw	a0,0(v0)
400012c8:	00000000 	nop
400012cc:	00102821 	addu	a1,zero,s0
400012d0:	00113021 	addu	a2,zero,s1
400012d4:	0c000338 	jal	40000ce0 <uint32_to_ascii_hex>
400012d8:	00000000 	nop
400012dc:	00022021 	addu	a0,zero,v0
400012e0:	0c000613 	jal	4000184c <uwrite_int8s>
400012e4:	00000000 	nop
400012e8:	3c024000 	lui	v0,0x4000
400012ec:	24441988 	addiu	a0,v0,6536
400012f0:	08000445 	j	40001114 <main+0x20>
400012f4:	00000000 	nop
400012f8:	8fa400a4 	lw	a0,164(sp)
400012fc:	00000000 	nop
40001300:	3c024000 	lui	v0,0x4000
40001304:	2445198c 	addiu	a1,v0,6540
40001308:	0c0005c0 	jal	40001700 <strcmp>
4000130c:	00000000 	nop
40001310:	14400025 	bnez	v0,400013a8 <main+0x2b4>
40001314:	00000000 	nop
40001318:	3c024000 	lui	v0,0x4000
4000131c:	24461970 	addiu	a2,v0,6512
40001320:	27b00024 	addiu	s0,sp,36
40001324:	24110080 	li	s1,128
40001328:	00102021 	addu	a0,zero,s0
4000132c:	00112821 	addu	a1,zero,s1
40001330:	0c0003bf 	jal	40000efc <read_token>
40001334:	00000000 	nop
40001338:	00022021 	addu	a0,zero,v0
4000133c:	0c0001f0 	jal	400007c0 <ascii_hex_to_uint32>
40001340:	00000000 	nop
40001344:	afa200c0 	sw	v0,192(sp)
40001348:	afa200c4 	sw	v0,196(sp)
4000134c:	8fa400c0 	lw	a0,192(sp)
40001350:	00000000 	nop
40001354:	00102821 	addu	a1,zero,s0
40001358:	00113021 	addu	a2,zero,s1
4000135c:	0c000338 	jal	40000ce0 <uint32_to_ascii_hex>
40001360:	00000000 	nop
40001364:	00022021 	addu	a0,zero,v0
40001368:	0c000613 	jal	4000184c <uwrite_int8s>
4000136c:	00000000 	nop
40001370:	3c024000 	lui	v0,0x4000
40001374:	24441984 	addiu	a0,v0,6532
40001378:	0c000613 	jal	4000184c <uwrite_int8s>
4000137c:	00000000 	nop
40001380:	8fa200c4 	lw	v0,196(sp)
40001384:	00000000 	nop
40001388:	94440000 	lhu	a0,0(v0)
4000138c:	00000000 	nop
40001390:	00102821 	addu	a1,zero,s0
40001394:	00113021 	addu	a2,zero,s1
40001398:	0c0002d9 	jal	40000b64 <uint16_to_ascii_hex>
4000139c:	00000000 	nop
400013a0:	080004b7 	j	400012dc <main+0x1e8>
400013a4:	00000000 	nop
400013a8:	8fa400a4 	lw	a0,164(sp)
400013ac:	00000000 	nop
400013b0:	3c024000 	lui	v0,0x4000
400013b4:	24451990 	addiu	a1,v0,6544
400013b8:	0c0005c0 	jal	40001700 <strcmp>
400013bc:	00000000 	nop
400013c0:	14400025 	bnez	v0,40001458 <main+0x364>
400013c4:	00000000 	nop
400013c8:	3c024000 	lui	v0,0x4000
400013cc:	24461970 	addiu	a2,v0,6512
400013d0:	27b00024 	addiu	s0,sp,36
400013d4:	24110080 	li	s1,128
400013d8:	00102021 	addu	a0,zero,s0
400013dc:	00112821 	addu	a1,zero,s1
400013e0:	0c0003bf 	jal	40000efc <read_token>
400013e4:	00000000 	nop
400013e8:	00022021 	addu	a0,zero,v0
400013ec:	0c0001f0 	jal	400007c0 <ascii_hex_to_uint32>
400013f0:	00000000 	nop
400013f4:	afa200c8 	sw	v0,200(sp)
400013f8:	afa200cc 	sw	v0,204(sp)
400013fc:	8fa400c8 	lw	a0,200(sp)
40001400:	00000000 	nop
40001404:	00102821 	addu	a1,zero,s0
40001408:	00113021 	addu	a2,zero,s1
4000140c:	0c000338 	jal	40000ce0 <uint32_to_ascii_hex>
40001410:	00000000 	nop
40001414:	00022021 	addu	a0,zero,v0
40001418:	0c000613 	jal	4000184c <uwrite_int8s>
4000141c:	00000000 	nop
40001420:	3c024000 	lui	v0,0x4000
40001424:	24441984 	addiu	a0,v0,6532
40001428:	0c000613 	jal	4000184c <uwrite_int8s>
4000142c:	00000000 	nop
40001430:	8fa200cc 	lw	v0,204(sp)
40001434:	00000000 	nop
40001438:	90440000 	lbu	a0,0(v0)
4000143c:	00000000 	nop
40001440:	00102821 	addu	a1,zero,s0
40001444:	00113021 	addu	a2,zero,s1
40001448:	0c00027a 	jal	400009e8 <uint8_to_ascii_hex>
4000144c:	00000000 	nop
40001450:	080004b7 	j	400012dc <main+0x1e8>
40001454:	00000000 	nop
40001458:	8fa400a4 	lw	a0,164(sp)
4000145c:	00000000 	nop
40001460:	3c024000 	lui	v0,0x4000
40001464:	24451994 	addiu	a1,v0,6548
40001468:	0c0005c0 	jal	40001700 <strcmp>
4000146c:	00000000 	nop
40001470:	1440001d 	bnez	v0,400014e8 <main+0x3f4>
40001474:	00000000 	nop
40001478:	3c024000 	lui	v0,0x4000
4000147c:	27b00024 	addiu	s0,sp,36
40001480:	24110080 	li	s1,128
40001484:	24521970 	addiu	s2,v0,6512
40001488:	00102021 	addu	a0,zero,s0
4000148c:	00112821 	addu	a1,zero,s1
40001490:	00123021 	addu	a2,zero,s2
40001494:	0c0003bf 	jal	40000efc <read_token>
40001498:	00000000 	nop
4000149c:	00022021 	addu	a0,zero,v0
400014a0:	0c0001f0 	jal	400007c0 <ascii_hex_to_uint32>
400014a4:	00000000 	nop
400014a8:	afa200d0 	sw	v0,208(sp)
400014ac:	00102021 	addu	a0,zero,s0
400014b0:	00112821 	addu	a1,zero,s1
400014b4:	00123021 	addu	a2,zero,s2
400014b8:	0c0003bf 	jal	40000efc <read_token>
400014bc:	00000000 	nop
400014c0:	00022021 	addu	a0,zero,v0
400014c4:	0c0001f0 	jal	400007c0 <ascii_hex_to_uint32>
400014c8:	00000000 	nop
400014cc:	afa200d4 	sw	v0,212(sp)
400014d0:	afa200d8 	sw	v0,216(sp)
400014d4:	8fa300d0 	lw	v1,208(sp)
400014d8:	00000000 	nop
400014dc:	ac430000 	sw	v1,0(v0)
400014e0:	08000447 	j	4000111c <main+0x28>
400014e4:	00000000 	nop
400014e8:	8fa400a4 	lw	a0,164(sp)
400014ec:	00000000 	nop
400014f0:	3c024000 	lui	v0,0x4000
400014f4:	24451998 	addiu	a1,v0,6552
400014f8:	0c0005c0 	jal	40001700 <strcmp>
400014fc:	00000000 	nop
40001500:	1440001d 	bnez	v0,40001578 <main+0x484>
40001504:	00000000 	nop
40001508:	3c024000 	lui	v0,0x4000
4000150c:	27b00024 	addiu	s0,sp,36
40001510:	24110080 	li	s1,128
40001514:	24521970 	addiu	s2,v0,6512
40001518:	00102021 	addu	a0,zero,s0
4000151c:	00112821 	addu	a1,zero,s1
40001520:	00123021 	addu	a2,zero,s2
40001524:	0c0003bf 	jal	40000efc <read_token>
40001528:	00000000 	nop
4000152c:	00022021 	addu	a0,zero,v0
40001530:	0c000166 	jal	40000598 <ascii_hex_to_uint16>
40001534:	00000000 	nop
40001538:	a7a200dc 	sh	v0,220(sp)
4000153c:	00102021 	addu	a0,zero,s0
40001540:	00112821 	addu	a1,zero,s1
40001544:	00123021 	addu	a2,zero,s2
40001548:	0c0003bf 	jal	40000efc <read_token>
4000154c:	00000000 	nop
40001550:	00022021 	addu	a0,zero,v0
40001554:	0c0001f0 	jal	400007c0 <ascii_hex_to_uint32>
40001558:	00000000 	nop
4000155c:	afa200e0 	sw	v0,224(sp)
40001560:	afa200e4 	sw	v0,228(sp)
40001564:	97a300dc 	lhu	v1,220(sp)
40001568:	00000000 	nop
4000156c:	a4430000 	sh	v1,0(v0)
40001570:	08000447 	j	4000111c <main+0x28>
40001574:	00000000 	nop
40001578:	8fa400a4 	lw	a0,164(sp)
4000157c:	00000000 	nop
40001580:	3c024000 	lui	v0,0x4000
40001584:	2445199c 	addiu	a1,v0,6556
40001588:	0c0005c0 	jal	40001700 <strcmp>
4000158c:	00000000 	nop
40001590:	1440fee2 	bnez	v0,4000111c <main+0x28>
40001594:	00000000 	nop
40001598:	3c024000 	lui	v0,0x4000
4000159c:	27b00024 	addiu	s0,sp,36
400015a0:	24110080 	li	s1,128
400015a4:	24521970 	addiu	s2,v0,6512
400015a8:	00102021 	addu	a0,zero,s0
400015ac:	00112821 	addu	a1,zero,s1
400015b0:	00123021 	addu	a2,zero,s2
400015b4:	0c0003bf 	jal	40000efc <read_token>
400015b8:	00000000 	nop
400015bc:	00022021 	addu	a0,zero,v0
400015c0:	0c0000dc 	jal	40000370 <ascii_hex_to_uint8>
400015c4:	00000000 	nop
400015c8:	a3a200e8 	sb	v0,232(sp)
400015cc:	00102021 	addu	a0,zero,s0
400015d0:	00112821 	addu	a1,zero,s1
400015d4:	00123021 	addu	a2,zero,s2
400015d8:	0c0003bf 	jal	40000efc <read_token>
400015dc:	00000000 	nop
400015e0:	00022021 	addu	a0,zero,v0
400015e4:	0c0001f0 	jal	400007c0 <ascii_hex_to_uint32>
400015e8:	00000000 	nop
400015ec:	afa200ec 	sw	v0,236(sp)
400015f0:	afa200f0 	sw	v0,240(sp)
400015f4:	93a300e8 	lbu	v1,232(sp)
400015f8:	00000000 	nop
400015fc:	a0430000 	sb	v1,0(v0)
40001600:	08000447 	j	4000111c <main+0x28>
40001604:	00000000 	nop

40001608 <fill_int8v>:
40001608:	27bdffe0 	addiu	sp,sp,-32
4000160c:	afa40010 	sw	a0,16(sp)
40001610:	a3a50014 	sb	a1,20(sp)
40001614:	afa60018 	sw	a2,24(sp)
40001618:	afa0001c 	sw	zero,28(sp)
4000161c:	8fa2001c 	lw	v0,28(sp)
40001620:	00000000 	nop
40001624:	8fa30018 	lw	v1,24(sp)
40001628:	00000000 	nop
4000162c:	0043102b 	sltu	v0,v0,v1
40001630:	1040000f 	beqz	v0,40001670 <fill_int8v+0x68>
40001634:	00000000 	nop
40001638:	93a20014 	lbu	v0,20(sp)
4000163c:	00000000 	nop
40001640:	8fa3001c 	lw	v1,28(sp)
40001644:	00000000 	nop
40001648:	8fa40010 	lw	a0,16(sp)
4000164c:	00000000 	nop
40001650:	00831821 	addu	v1,a0,v1
40001654:	a0620000 	sb	v0,0(v1)
40001658:	8fa2001c 	lw	v0,28(sp)
4000165c:	00000000 	nop
40001660:	24420001 	addiu	v0,v0,1
40001664:	afa2001c 	sw	v0,28(sp)
40001668:	08000587 	j	4000161c <fill_int8v+0x14>
4000166c:	00000000 	nop
40001670:	8fa20010 	lw	v0,16(sp)
40001674:	00000000 	nop
40001678:	27bd0020 	addiu	sp,sp,32
4000167c:	03e00008 	jr	ra
40001680:	00000000 	nop

40001684 <fill_uint8v>:
40001684:	27bdffe0 	addiu	sp,sp,-32
40001688:	afa40010 	sw	a0,16(sp)
4000168c:	a3a50014 	sb	a1,20(sp)
40001690:	afa60018 	sw	a2,24(sp)
40001694:	afa0001c 	sw	zero,28(sp)
40001698:	8fa2001c 	lw	v0,28(sp)
4000169c:	00000000 	nop
400016a0:	8fa30018 	lw	v1,24(sp)
400016a4:	00000000 	nop
400016a8:	0043102b 	sltu	v0,v0,v1
400016ac:	1040000f 	beqz	v0,400016ec <fill_uint8v+0x68>
400016b0:	00000000 	nop
400016b4:	93a20014 	lbu	v0,20(sp)
400016b8:	00000000 	nop
400016bc:	8fa3001c 	lw	v1,28(sp)
400016c0:	00000000 	nop
400016c4:	8fa40010 	lw	a0,16(sp)
400016c8:	00000000 	nop
400016cc:	00831821 	addu	v1,a0,v1
400016d0:	a0620000 	sb	v0,0(v1)
400016d4:	8fa2001c 	lw	v0,28(sp)
400016d8:	00000000 	nop
400016dc:	24420001 	addiu	v0,v0,1
400016e0:	afa2001c 	sw	v0,28(sp)
400016e4:	080005a6 	j	40001698 <fill_uint8v+0x14>
400016e8:	00000000 	nop
400016ec:	8fa20010 	lw	v0,16(sp)
400016f0:	00000000 	nop
400016f4:	27bd0020 	addiu	sp,sp,32
400016f8:	03e00008 	jr	ra
400016fc:	00000000 	nop

40001700 <strcmp>:
40001700:	27bdffe0 	addiu	sp,sp,-32
40001704:	afa40014 	sw	a0,20(sp)
40001708:	afa50018 	sw	a1,24(sp)
4000170c:	afa0001c 	sw	zero,28(sp)
40001710:	8fa20014 	lw	v0,20(sp)
40001714:	00000000 	nop
40001718:	8fa3001c 	lw	v1,28(sp)
4000171c:	00000000 	nop
40001720:	8fa40018 	lw	a0,24(sp)
40001724:	00000000 	nop
40001728:	00431021 	addu	v0,v0,v1
4000172c:	00831821 	addu	v1,a0,v1
40001730:	80420000 	lb	v0,0(v0)
40001734:	00000000 	nop
40001738:	80630000 	lb	v1,0(v1)
4000173c:	00000000 	nop
40001740:	10430005 	beq	v0,v1,40001758 <strcmp+0x58>
40001744:	00000000 	nop
40001748:	24020001 	li	v0,1
4000174c:	afa20010 	sw	v0,16(sp)
40001750:	080005e6 	j	40001798 <strcmp+0x98>
40001754:	00000000 	nop
40001758:	8fa20014 	lw	v0,20(sp)
4000175c:	00000000 	nop
40001760:	8fa3001c 	lw	v1,28(sp)
40001764:	00000000 	nop
40001768:	00431021 	addu	v0,v0,v1
4000176c:	80420000 	lb	v0,0(v0)
40001770:	00000000 	nop
40001774:	10400007 	beqz	v0,40001794 <strcmp+0x94>
40001778:	00000000 	nop
4000177c:	8fa2001c 	lw	v0,28(sp)
40001780:	00000000 	nop
40001784:	24420001 	addiu	v0,v0,1
40001788:	afa2001c 	sw	v0,28(sp)
4000178c:	080005c4 	j	40001710 <strcmp+0x10>
40001790:	00000000 	nop
40001794:	afa00010 	sw	zero,16(sp)
40001798:	8fa20010 	lw	v0,16(sp)
4000179c:	00000000 	nop
400017a0:	27bd0020 	addiu	sp,sp,32
400017a4:	03e00008 	jr	ra
400017a8:	00000000 	nop

400017ac <strlen>:
400017ac:	27bdffe8 	addiu	sp,sp,-24
400017b0:	afa40010 	sw	a0,16(sp)
400017b4:	afa00014 	sw	zero,20(sp)
400017b8:	8fa20010 	lw	v0,16(sp)
400017bc:	00000000 	nop
400017c0:	8fa30014 	lw	v1,20(sp)
400017c4:	00000000 	nop
400017c8:	00431021 	addu	v0,v0,v1
400017cc:	80420000 	lb	v0,0(v0)
400017d0:	00000000 	nop
400017d4:	10400007 	beqz	v0,400017f4 <strlen+0x48>
400017d8:	00000000 	nop
400017dc:	8fa20014 	lw	v0,20(sp)
400017e0:	00000000 	nop
400017e4:	24420001 	addiu	v0,v0,1
400017e8:	afa20014 	sw	v0,20(sp)
400017ec:	080005ee 	j	400017b8 <strlen+0xc>
400017f0:	00000000 	nop
400017f4:	8fa20014 	lw	v0,20(sp)
400017f8:	00000000 	nop
400017fc:	27bd0018 	addiu	sp,sp,24
40001800:	03e00008 	jr	ra
40001804:	00000000 	nop

40001808 <uwrite_int8>:
40001808:	27bdffe8 	addiu	sp,sp,-24
4000180c:	a3a40010 	sb	a0,16(sp)
40001810:	3c028000 	lui	v0,0x8000
40001814:	34420000 	ori	v0,v0,0x0
40001818:	8c420000 	lw	v0,0(v0)
4000181c:	00000000 	nop
40001820:	30420001 	andi	v0,v0,0x1
40001824:	1040fffa 	beqz	v0,40001810 <uwrite_int8+0x8>
40001828:	00000000 	nop
4000182c:	3c028000 	lui	v0,0x8000
40001830:	83a30010 	lb	v1,16(sp)
40001834:	00000000 	nop
40001838:	34420008 	ori	v0,v0,0x8
4000183c:	ac430000 	sw	v1,0(v0)
40001840:	27bd0018 	addiu	sp,sp,24
40001844:	03e00008 	jr	ra
40001848:	00000000 	nop

4000184c <uwrite_int8s>:
4000184c:	27bdffd0 	addiu	sp,sp,-48
40001850:	afbf002c 	sw	ra,44(sp)
40001854:	afa40020 	sw	a0,32(sp)
40001858:	afa00024 	sw	zero,36(sp)
4000185c:	8fa20020 	lw	v0,32(sp)
40001860:	00000000 	nop
40001864:	8fa30024 	lw	v1,36(sp)
40001868:	00000000 	nop
4000186c:	00431021 	addu	v0,v0,v1
40001870:	80420000 	lb	v0,0(v0)
40001874:	00000000 	nop
40001878:	10400010 	beqz	v0,400018bc <uwrite_int8s+0x70>
4000187c:	00000000 	nop
40001880:	8fa20020 	lw	v0,32(sp)
40001884:	00000000 	nop
40001888:	8fa30024 	lw	v1,36(sp)
4000188c:	00000000 	nop
40001890:	00431021 	addu	v0,v0,v1
40001894:	80440000 	lb	a0,0(v0)
40001898:	00000000 	nop
4000189c:	0c000602 	jal	40001808 <uwrite_int8>
400018a0:	00000000 	nop
400018a4:	8fa20024 	lw	v0,36(sp)
400018a8:	00000000 	nop
400018ac:	24420001 	addiu	v0,v0,1
400018b0:	afa20024 	sw	v0,36(sp)
400018b4:	08000617 	j	4000185c <uwrite_int8s+0x10>
400018b8:	00000000 	nop
400018bc:	8fbf002c 	lw	ra,44(sp)
400018c0:	00000000 	nop
400018c4:	27bd0030 	addiu	sp,sp,48
400018c8:	03e00008 	jr	ra
400018cc:	00000000 	nop

400018d0 <uread_int8>:
400018d0:	27bdffd0 	addiu	sp,sp,-48
400018d4:	afbf002c 	sw	ra,44(sp)
400018d8:	3c028000 	lui	v0,0x8000
400018dc:	34420004 	ori	v0,v0,0x4
400018e0:	8c420000 	lw	v0,0(v0)
400018e4:	00000000 	nop
400018e8:	30420001 	andi	v0,v0,0x1
400018ec:	1040fffa 	beqz	v0,400018d8 <uread_int8+0x8>
400018f0:	00000000 	nop
400018f4:	3c028000 	lui	v0,0x8000
400018f8:	3442000c 	ori	v0,v0,0xc
400018fc:	8c420000 	lw	v0,0(v0)
40001900:	00000000 	nop
40001904:	a3a20020 	sb	v0,32(sp)
40001908:	83a20020 	lb	v0,32(sp)
4000190c:	00000000 	nop
40001910:	2403000d 	li	v1,13
40001914:	14430007 	bne	v0,v1,40001934 <uread_int8+0x64>
40001918:	00000000 	nop
4000191c:	3c024000 	lui	v0,0x4000
40001920:	24441988 	addiu	a0,v0,6536
40001924:	0c000613 	jal	4000184c <uwrite_int8s>
40001928:	00000000 	nop
4000192c:	08000651 	j	40001944 <uread_int8+0x74>
40001930:	00000000 	nop
40001934:	83a40020 	lb	a0,32(sp)
40001938:	00000000 	nop
4000193c:	0c000602 	jal	40001808 <uwrite_int8>
40001940:	00000000 	nop
40001944:	83a20020 	lb	v0,32(sp)
40001948:	00000000 	nop
4000194c:	8fbf002c 	lw	ra,44(sp)
40001950:	00000000 	nop
40001954:	27bd0030 	addiu	sp,sp,48
40001958:	03e00008 	jr	ra
4000195c:	00000000 	nop

Disassembly of section .rodata.str1.4:

40001960 <.rodata.str1.4>:
40001960:	0d0a0d0a 	jal	44283428 <uread_int8+0x4281b58>
40001964:	0d0a0d0a 	jal	44283428 <uread_int8+0x4281b58>
40001968:	00000000 	nop
4000196c:	3e200000 	0x3e200000
40001970:	200d0000 	addi	t5,zero,0
40001974:	66696c65 	0x66696c65
40001978:	00000000 	nop
4000197c:	6a616c00 	0x6a616c00
40001980:	6c770000 	0x6c770000
40001984:	3a000000 	xori	zero,s0,0x0
40001988:	0d0a0000 	jal	44280000 <uread_int8+0x427e730>
4000198c:	6c687500 	0x6c687500
40001990:	6c627500 	0x6c627500
40001994:	73770000 	0x73770000
40001998:	73680000 	0x73680000
4000199c:	73620000 	0x73620000

Disassembly of section .reginfo:

00000000 <.reginfo>:
   0:	a000007c 	sb	zero,124(zero)
	...

Disassembly of section .pdr:

00000000 <.pdr>:
   0:	40000008 	0x40000008
	...
  14:	00000020 	add	zero,zero,zero
  18:	0000001d 	0x1d
  1c:	0000001f 	0x1f
  20:	4000012c 	0x4000012c
	...
  34:	00000020 	add	zero,zero,zero
  38:	0000001d 	0x1d
  3c:	0000001f 	0x1f
  40:	40000250 	0x40000250
	...
  54:	00000020 	add	zero,zero,zero
  58:	0000001d 	0x1d
  5c:	0000001f 	0x1f
  60:	40000370 	0x40000370
	...
  74:	00000020 	add	zero,zero,zero
  78:	0000001d 	0x1d
  7c:	0000001f 	0x1f
  80:	40000598 	0x40000598
	...
  94:	00000020 	add	zero,zero,zero
  98:	0000001d 	0x1d
  9c:	0000001f 	0x1f
  a0:	400007c0 	0x400007c0
	...
  b4:	00000020 	add	zero,zero,zero
  b8:	0000001d 	0x1d
  bc:	0000001f 	0x1f
  c0:	400009e8 	0x400009e8
	...
  d4:	00000028 	0x28
  d8:	0000001d 	0x1d
  dc:	0000001f 	0x1f
  e0:	40000b64 	0x40000b64
	...
  f4:	00000028 	0x28
  f8:	0000001d 	0x1d
  fc:	0000001f 	0x1f
 100:	40000ce0 	0x40000ce0
	...
 114:	00000028 	0x28
 118:	0000001d 	0x1d
 11c:	0000001f 	0x1f
 120:	40000e5c 	0x40000e5c
 124:	80000000 	lb	zero,0(zero)
 128:	fffffffc 	0xfffffffc
	...
 134:	00000038 	0x38
 138:	0000001d 	0x1d
 13c:	0000001f 	0x1f
 140:	40000efc 	0x40000efc
 144:	80000000 	lb	zero,0(zero)
 148:	fffffffc 	0xfffffffc
	...
 154:	00000048 	0x48
 158:	0000001d 	0x1d
 15c:	0000001f 	0x1f
 160:	40001048 	0x40001048
 164:	80000000 	lb	zero,0(zero)
 168:	fffffffc 	0xfffffffc
	...
 174:	00000048 	0x48
 178:	0000001d 	0x1d
 17c:	0000001f 	0x1f
 180:	400010f4 	0x400010f4
 184:	801c0000 	lb	gp,0(zero)
 188:	fffffff8 	0xfffffff8
	...
 194:	00000110 	0x110
 198:	0000001d 	0x1d
 19c:	0000001f 	0x1f
 1a0:	40001608 	0x40001608
	...
 1b4:	00000020 	add	zero,zero,zero
 1b8:	0000001d 	0x1d
 1bc:	0000001f 	0x1f
 1c0:	40001684 	0x40001684
	...
 1d4:	00000020 	add	zero,zero,zero
 1d8:	0000001d 	0x1d
 1dc:	0000001f 	0x1f
 1e0:	40001700 	0x40001700
	...
 1f4:	00000020 	add	zero,zero,zero
 1f8:	0000001d 	0x1d
 1fc:	0000001f 	0x1f
 200:	400017ac 	0x400017ac
	...
 214:	00000018 	mult	zero,zero
 218:	0000001d 	0x1d
 21c:	0000001f 	0x1f
 220:	40001808 	0x40001808
	...
 234:	00000018 	mult	zero,zero
 238:	0000001d 	0x1d
 23c:	0000001f 	0x1f
 240:	4000184c 	0x4000184c
 244:	80000000 	lb	zero,0(zero)
 248:	fffffffc 	0xfffffffc
	...
 254:	00000030 	0x30
 258:	0000001d 	0x1d
 25c:	0000001f 	0x1f
 260:	400018d0 	0x400018d0
 264:	80000000 	lb	zero,0(zero)
 268:	fffffffc 	0xfffffffc
	...
 274:	00000030 	0x30
 278:	0000001d 	0x1d
 27c:	0000001f 	0x1f
